ARM GAS  /tmp/ccOFpHSq.s 			page 1


   1              		.syntax unified
   2              		.cpu cortex-m4
   3              		.eabi_attribute 27, 1
   4              		.eabi_attribute 28, 1
   5              		.fpu fpv4-sp-d16
   6              		.eabi_attribute 20, 1
   7              		.eabi_attribute 21, 1
   8              		.eabi_attribute 23, 3
   9              		.eabi_attribute 24, 1
  10              		.eabi_attribute 25, 1
  11              		.eabi_attribute 26, 1
  12              		.eabi_attribute 30, 1
  13              		.eabi_attribute 34, 1
  14              		.eabi_attribute 18, 4
  15              		.thumb
  16              		.syntax unified
  17              		.file	"iir_filter_lx.c"
  18              		.text
  19              	.Ltext0:
  20              		.cfi_sections	.debug_frame
  21              		.section	.text.iir_filter_lx_init,"ax",%progbits
  22              		.align	2
  23              		.thumb
  24              		.thumb_func
  26              	iir_filter_lx_init:
  27              	.LFB0:
  28              		.file 1 "Ourtasks/iir_filter_lx.c"
   1:Ourtasks/iir_filter_lx.c **** /******************************************************************************
   2:Ourtasks/iir_filter_lx.c **** * File Name          : iir_filter_lx.c
   3:Ourtasks/iir_filter_lx.c **** * Date First Issued  : 05/18/2016
   4:Ourtasks/iir_filter_lx.c **** * Board              : --
   5:Ourtasks/iir_filter_lx.c **** * Description        : Single pole IIR filter using int32_t
   6:Ourtasks/iir_filter_lx.c **** *******************************************************************************/
   7:Ourtasks/iir_filter_lx.c **** /*
   8:Ourtasks/iir_filter_lx.c **** Simple single pole IIR stage.
   9:Ourtasks/iir_filter_lx.c **** 
  10:Ourtasks/iir_filter_lx.c **** For pass-thru, where the output = input, i.e no filtering, set k=1.
  11:Ourtasks/iir_filter_lx.c **** 
  12:Ourtasks/iir_filter_lx.c **** */
  13:Ourtasks/iir_filter_lx.c **** 
  14:Ourtasks/iir_filter_lx.c **** #include "iir_filter_lx.h"
  15:Ourtasks/iir_filter_lx.c **** /******************************************************************************
  16:Ourtasks/iir_filter_lx.c ****  * static void iir_filter_lx_init(struct IIRFILTERL* pfil, uint32_t* pval);
  17:Ourtasks/iir_filter_lx.c ****  * @brief	: Set initial value
  18:Ourtasks/iir_filter_lx.c ****  * @param	: pfil = pointer to struct with filter stuff
  19:Ourtasks/iir_filter_lx.c ****  * @param	: pval = pointer to reading
  20:Ourtasks/iir_filter_lx.c **** *******************************************************************************/
  21:Ourtasks/iir_filter_lx.c **** static void iir_filter_lx_init(struct IIRFILTERL* pfil, uint16_t* pval)
  22:Ourtasks/iir_filter_lx.c **** {
  29              		.loc 1 22 0
  30              		.cfi_startproc
  31              		@ args = 0, pretend = 0, frame = 0
  32              		@ frame_needed = 0, uses_anonymous_args = 0
  33              		@ link register save eliminated.
  34              	.LVL0:
  23:Ourtasks/iir_filter_lx.c **** 	/* Crazy results if scale or k is bogus. */
  24:Ourtasks/iir_filter_lx.c **** 	if (pfil->pprm->scale <= 0) pfil->pprm->scale = 1;
ARM GAS  /tmp/ccOFpHSq.s 			page 2


  35              		.loc 1 24 0
  36 0000 0369     		ldr	r3, [r0, #16]
  37 0002 5A68     		ldr	r2, [r3, #4]
  38 0004 002A     		cmp	r2, #0
  39 0006 01DC     		bgt	.L2
  40              		.loc 1 24 0 is_stmt 0 discriminator 1
  41 0008 0122     		movs	r2, #1
  42 000a 5A60     		str	r2, [r3, #4]
  43              	.L2:
  25:Ourtasks/iir_filter_lx.c **** 	if (pfil->pprm->k <= 0) pfil->pprm->k = 1;
  44              		.loc 1 25 0 is_stmt 1
  45 000c 0369     		ldr	r3, [r0, #16]
  46 000e 1A68     		ldr	r2, [r3]
  47 0010 002A     		cmp	r2, #0
  48 0012 01DC     		bgt	.L3
  49              		.loc 1 25 0 is_stmt 0 discriminator 1
  50 0014 0122     		movs	r2, #1
  51 0016 1A60     		str	r2, [r3]
  52              	.L3:
  26:Ourtasks/iir_filter_lx.c **** 
  27:Ourtasks/iir_filter_lx.c **** 	/* Set initial value with the first reading. */
  28:Ourtasks/iir_filter_lx.c **** 	pfil->z = (*pval) * (pfil->pprm->scale);
  53              		.loc 1 28 0 is_stmt 1
  54 0018 0A88     		ldrh	r2, [r1]
  55 001a 0369     		ldr	r3, [r0, #16]
  56 001c 5B68     		ldr	r3, [r3, #4]
  57 001e 03FB02F3 		mul	r3, r3, r2
  58 0022 8360     		str	r3, [r0, #8]
  59 0024 7047     		bx	lr
  60              		.cfi_endproc
  61              	.LFE0:
  63 0026 00BF     		.section	.text.iir_filter_lx_do,"ax",%progbits
  64              		.align	2
  65              		.global	iir_filter_lx_do
  66              		.thumb
  67              		.thumb_func
  69              	iir_filter_lx_do:
  70              	.LFB1:
  29:Ourtasks/iir_filter_lx.c **** 	return;
  30:Ourtasks/iir_filter_lx.c **** }
  31:Ourtasks/iir_filter_lx.c **** /******************************************************************************
  32:Ourtasks/iir_filter_lx.c ****  * int32_t iir_filter_lx_do(struct IIRFILTERL* pfil, uint16_t* pval);
  33:Ourtasks/iir_filter_lx.c ****  * @brief	: Pass an input value through the filter.
  34:Ourtasks/iir_filter_lx.c ****  * @param	: pfil = pointer to struct with filter stuff
  35:Ourtasks/iir_filter_lx.c ****  * @param	: pval = pointer to reading
  36:Ourtasks/iir_filter_lx.c ****  * @return	: latest filtered value
  37:Ourtasks/iir_filter_lx.c **** *******************************************************************************/
  38:Ourtasks/iir_filter_lx.c **** /*
  39:Ourtasks/iir_filter_lx.c **** NOTE: It is expected that pfil-z has been initialized.
  40:Ourtasks/iir_filter_lx.c **** */
  41:Ourtasks/iir_filter_lx.c **** int32_t iir_filter_lx_do(struct IIRFILTERL* pfil, uint16_t* pval)
  42:Ourtasks/iir_filter_lx.c **** {
  71              		.loc 1 42 0
  72              		.cfi_startproc
  73              		@ args = 0, pretend = 0, frame = 0
  74              		@ frame_needed = 0, uses_anonymous_args = 0
  75              	.LVL1:
ARM GAS  /tmp/ccOFpHSq.s 			page 3


  76 0000 38B5     		push	{r3, r4, r5, lr}
  77              	.LCFI0:
  78              		.cfi_def_cfa_offset 16
  79              		.cfi_offset 3, -16
  80              		.cfi_offset 4, -12
  81              		.cfi_offset 5, -8
  82              		.cfi_offset 14, -4
  83 0002 0446     		mov	r4, r0
  84 0004 0D46     		mov	r5, r1
  43:Ourtasks/iir_filter_lx.c **** 	/* First time with reading. */
  44:Ourtasks/iir_filter_lx.c **** 	if (pfil->sw == 0)
  85              		.loc 1 44 0
  86 0006 037D     		ldrb	r3, [r0, #20]	@ zero_extendqisi2
  87 0008 1BB9     		cbnz	r3, .L5
  45:Ourtasks/iir_filter_lx.c **** 	{
  46:Ourtasks/iir_filter_lx.c **** 		pfil->sw = 1;
  88              		.loc 1 46 0
  89 000a 0123     		movs	r3, #1
  90 000c 0375     		strb	r3, [r0, #20]
  47:Ourtasks/iir_filter_lx.c **** 		iir_filter_lx_init(pfil, pval);
  91              		.loc 1 47 0
  92 000e FFF7FEFF 		bl	iir_filter_lx_init
  93              	.LVL2:
  94              	.L5:
  48:Ourtasks/iir_filter_lx.c **** 	}
  49:Ourtasks/iir_filter_lx.c **** 
  50:Ourtasks/iir_filter_lx.c **** 	/* Filter computation */
  51:Ourtasks/iir_filter_lx.c ****    pfil->z = pfil->z + ( (*pval) * (pfil->pprm->scale) - pfil->z) / (pfil->pprm->k); 
  95              		.loc 1 51 0
  96 0012 2A88     		ldrh	r2, [r5]
  97 0014 2169     		ldr	r1, [r4, #16]
  98 0016 4B68     		ldr	r3, [r1, #4]
  99 0018 03FB02F3 		mul	r3, r3, r2
 100 001c A568     		ldr	r5, [r4, #8]
 101              	.LVL3:
 102 001e 5A1B     		subs	r2, r3, r5
 103 0020 0B68     		ldr	r3, [r1]
 104 0022 92FBF3F3 		sdiv	r3, r2, r3
 105 0026 2B44     		add	r3, r3, r5
 106 0028 A360     		str	r3, [r4, #8]
  52:Ourtasks/iir_filter_lx.c **** 	return (pfil->z / pfil->pprm->scale);
 107              		.loc 1 52 0
 108 002a 4868     		ldr	r0, [r1, #4]
  53:Ourtasks/iir_filter_lx.c **** }
 109              		.loc 1 53 0
 110 002c 93FBF0F0 		sdiv	r0, r3, r0
 111 0030 38BD     		pop	{r3, r4, r5, pc}
 112              		.cfi_endproc
 113              	.LFE1:
 115              		.global	__aeabi_i2d
 116 0032 00BF     		.section	.text.iir_filter_lx_double,"ax",%progbits
 117              		.align	2
 118              		.global	iir_filter_lx_double
 119              		.thumb
 120              		.thumb_func
 122              	iir_filter_lx_double:
 123              	.LFB2:
ARM GAS  /tmp/ccOFpHSq.s 			page 4


  54:Ourtasks/iir_filter_lx.c **** /******************************************************************************
  55:Ourtasks/iir_filter_lx.c ****  * void iir_filter_lx_double(struct IIRFILTERL* pfil);
  56:Ourtasks/iir_filter_lx.c ****  * @brief	: Convert unscaled int to scaled double
  57:Ourtasks/iir_filter_lx.c ****  * @param	: pfil = pointer to struct with filter stuff
  58:Ourtasks/iir_filter_lx.c **** *******************************************************************************/
  59:Ourtasks/iir_filter_lx.c **** void iir_filter_lx_double(struct IIRFILTERL* pfil)
  60:Ourtasks/iir_filter_lx.c **** {
 124              		.loc 1 60 0
 125              		.cfi_startproc
 126              		@ args = 0, pretend = 0, frame = 0
 127              		@ frame_needed = 0, uses_anonymous_args = 0
 128              	.LVL4:
 129 0000 38B5     		push	{r3, r4, r5, lr}
 130              	.LCFI1:
 131              		.cfi_def_cfa_offset 16
 132              		.cfi_offset 3, -16
 133              		.cfi_offset 4, -12
 134              		.cfi_offset 5, -8
 135              		.cfi_offset 14, -4
 136 0002 0446     		mov	r4, r0
  61:Ourtasks/iir_filter_lx.c **** 	pfil->d_out = pfil->z;	// int to double
 137              		.loc 1 61 0
 138 0004 8568     		ldr	r5, [r0, #8]
 139 0006 2846     		mov	r0, r5
 140              	.LVL5:
 141 0008 FFF7FEFF 		bl	__aeabi_i2d
 142              	.LVL6:
 143 000c C4E90001 		strd	r0, [r4]
  62:Ourtasks/iir_filter_lx.c **** 	pfil->d_out = pfil->z/(pfil->pprm->scale); // Scale
 144              		.loc 1 62 0
 145 0010 2369     		ldr	r3, [r4, #16]
 146 0012 5868     		ldr	r0, [r3, #4]
 147 0014 95FBF0F0 		sdiv	r0, r5, r0
 148 0018 FFF7FEFF 		bl	__aeabi_i2d
 149              	.LVL7:
 150 001c C4E90001 		strd	r0, [r4]
 151 0020 38BD     		pop	{r3, r4, r5, pc}
 152              		.cfi_endproc
 153              	.LFE2:
 155 0022 00BF     		.section	.text.iir_filter_lx_float,"ax",%progbits
 156              		.align	2
 157              		.global	iir_filter_lx_float
 158              		.thumb
 159              		.thumb_func
 161              	iir_filter_lx_float:
 162              	.LFB3:
  63:Ourtasks/iir_filter_lx.c **** 	return;
  64:Ourtasks/iir_filter_lx.c **** }
  65:Ourtasks/iir_filter_lx.c **** /******************************************************************************
  66:Ourtasks/iir_filter_lx.c ****  * void iir_filter_lx_float(struct IIRFILTERL* pfil);
  67:Ourtasks/iir_filter_lx.c ****  * @brief	: Convert unscaled int to scaled float
  68:Ourtasks/iir_filter_lx.c ****  * @param	: pfil = pointer to struct with filter stuff
  69:Ourtasks/iir_filter_lx.c **** *******************************************************************************/
  70:Ourtasks/iir_filter_lx.c **** void iir_filter_lx_float(struct IIRFILTERL* pfil)
  71:Ourtasks/iir_filter_lx.c **** {
 163              		.loc 1 71 0
 164              		.cfi_startproc
ARM GAS  /tmp/ccOFpHSq.s 			page 5


 165              		@ args = 0, pretend = 0, frame = 0
 166              		@ frame_needed = 0, uses_anonymous_args = 0
 167              		@ link register save eliminated.
 168              	.LVL8:
  72:Ourtasks/iir_filter_lx.c **** 	pfil->f_out = pfil->z;	// int to float
 169              		.loc 1 72 0
 170 0000 D0ED027A 		vldr.32	s15, [r0, #8]	@ int
 171 0004 F8EEE77A 		vcvt.f32.s32	s15, s15
 172 0008 C0ED037A 		vstr.32	s15, [r0, #12]
  73:Ourtasks/iir_filter_lx.c **** 	pfil->f_out = pfil->f_out/(pfil->pprm->scale); // Scale
 173              		.loc 1 73 0
 174 000c 0369     		ldr	r3, [r0, #16]
 175 000e 93ED017A 		vldr.32	s14, [r3, #4]	@ int
 176 0012 B8EEC77A 		vcvt.f32.s32	s14, s14
 177 0016 C7EE876A 		vdiv.f32	s13, s15, s14
 178 001a C0ED036A 		vstr.32	s13, [r0, #12]
 179 001e 7047     		bx	lr
 180              		.cfi_endproc
 181              	.LFE3:
 183              		.text
 184              	.Letext0:
 185              		.file 2 "/home/deh/launchpad/gcc-arm-none-eabi-5_4-2016q3/arm-none-eabi/include/machine/_default_t
 186              		.file 3 "/home/deh/launchpad/gcc-arm-none-eabi-5_4-2016q3/arm-none-eabi/include/sys/_stdint.h"
 187              		.file 4 "Ourtasks/iir_filter_lx.h"
ARM GAS  /tmp/ccOFpHSq.s 			page 6

