ARM GAS  /tmp/ccKrWf9C.s 			page 1


   1              		.syntax unified
   2              		.cpu cortex-m4
   3              		.eabi_attribute 27, 1
   4              		.eabi_attribute 28, 1
   5              		.fpu fpv4-sp-d16
   6              		.eabi_attribute 20, 1
   7              		.eabi_attribute 21, 1
   8              		.eabi_attribute 23, 3
   9              		.eabi_attribute 24, 1
  10              		.eabi_attribute 25, 1
  11              		.eabi_attribute 26, 1
  12              		.eabi_attribute 30, 1
  13              		.eabi_attribute 34, 1
  14              		.eabi_attribute 18, 4
  15              		.thumb
  16              		.syntax unified
  17              		.file	"stream_buffer.c"
  18              		.text
  19              	.Ltext0:
  20              		.cfi_sections	.debug_frame
  21              		.section	.text.prvBytesInBuffer,"ax",%progbits
  22              		.align	2
  23              		.thumb
  24              		.thumb_func
  26              	prvBytesInBuffer:
  27              	.LFB24:
  28              		.file 1 "Middlewares/Third_Party/FreeRTOS/Source/stream_buffer.c"
   1:Middlewares/Third_Party/FreeRTOS/Source/stream_buffer.c **** /*
   2:Middlewares/Third_Party/FreeRTOS/Source/stream_buffer.c ****  * FreeRTOS Kernel V10.3.1
   3:Middlewares/Third_Party/FreeRTOS/Source/stream_buffer.c ****  * Copyright (C) 2020 Amazon.com, Inc. or its affiliates.  All Rights Reserved.
   4:Middlewares/Third_Party/FreeRTOS/Source/stream_buffer.c ****  *
   5:Middlewares/Third_Party/FreeRTOS/Source/stream_buffer.c ****  * Permission is hereby granted, free of charge, to any person obtaining a copy of
   6:Middlewares/Third_Party/FreeRTOS/Source/stream_buffer.c ****  * this software and associated documentation files (the "Software"), to deal in
   7:Middlewares/Third_Party/FreeRTOS/Source/stream_buffer.c ****  * the Software without restriction, including without limitation the rights to
   8:Middlewares/Third_Party/FreeRTOS/Source/stream_buffer.c ****  * use, copy, modify, merge, publish, distribute, sublicense, and/or sell copies of
   9:Middlewares/Third_Party/FreeRTOS/Source/stream_buffer.c ****  * the Software, and to permit persons to whom the Software is furnished to do so,
  10:Middlewares/Third_Party/FreeRTOS/Source/stream_buffer.c ****  * subject to the following conditions:
  11:Middlewares/Third_Party/FreeRTOS/Source/stream_buffer.c ****  *
  12:Middlewares/Third_Party/FreeRTOS/Source/stream_buffer.c ****  * The above copyright notice and this permission notice shall be included in all
  13:Middlewares/Third_Party/FreeRTOS/Source/stream_buffer.c ****  * copies or substantial portions of the Software.
  14:Middlewares/Third_Party/FreeRTOS/Source/stream_buffer.c ****  *
  15:Middlewares/Third_Party/FreeRTOS/Source/stream_buffer.c ****  * THE SOFTWARE IS PROVIDED "AS IS", WITHOUT WARRANTY OF ANY KIND, EXPRESS OR
  16:Middlewares/Third_Party/FreeRTOS/Source/stream_buffer.c ****  * IMPLIED, INCLUDING BUT NOT LIMITED TO THE WARRANTIES OF MERCHANTABILITY, FITNESS
  17:Middlewares/Third_Party/FreeRTOS/Source/stream_buffer.c ****  * FOR A PARTICULAR PURPOSE AND NONINFRINGEMENT. IN NO EVENT SHALL THE AUTHORS OR
  18:Middlewares/Third_Party/FreeRTOS/Source/stream_buffer.c ****  * COPYRIGHT HOLDERS BE LIABLE FOR ANY CLAIM, DAMAGES OR OTHER LIABILITY, WHETHER
  19:Middlewares/Third_Party/FreeRTOS/Source/stream_buffer.c ****  * IN AN ACTION OF CONTRACT, TORT OR OTHERWISE, ARISING FROM, OUT OF OR IN
  20:Middlewares/Third_Party/FreeRTOS/Source/stream_buffer.c ****  * CONNECTION WITH THE SOFTWARE OR THE USE OR OTHER DEALINGS IN THE SOFTWARE.
  21:Middlewares/Third_Party/FreeRTOS/Source/stream_buffer.c ****  *
  22:Middlewares/Third_Party/FreeRTOS/Source/stream_buffer.c ****  * http://www.FreeRTOS.org
  23:Middlewares/Third_Party/FreeRTOS/Source/stream_buffer.c ****  * http://aws.amazon.com/freertos
  24:Middlewares/Third_Party/FreeRTOS/Source/stream_buffer.c ****  *
  25:Middlewares/Third_Party/FreeRTOS/Source/stream_buffer.c ****  * 1 tab == 4 spaces!
  26:Middlewares/Third_Party/FreeRTOS/Source/stream_buffer.c ****  */
  27:Middlewares/Third_Party/FreeRTOS/Source/stream_buffer.c **** 
  28:Middlewares/Third_Party/FreeRTOS/Source/stream_buffer.c **** /* Standard includes. */
  29:Middlewares/Third_Party/FreeRTOS/Source/stream_buffer.c **** #include <stdint.h>
  30:Middlewares/Third_Party/FreeRTOS/Source/stream_buffer.c **** #include <string.h>
ARM GAS  /tmp/ccKrWf9C.s 			page 2


  31:Middlewares/Third_Party/FreeRTOS/Source/stream_buffer.c **** 
  32:Middlewares/Third_Party/FreeRTOS/Source/stream_buffer.c **** /* Defining MPU_WRAPPERS_INCLUDED_FROM_API_FILE prevents task.h from redefining
  33:Middlewares/Third_Party/FreeRTOS/Source/stream_buffer.c **** all the API functions to use the MPU wrappers.  That should only be done when
  34:Middlewares/Third_Party/FreeRTOS/Source/stream_buffer.c **** task.h is included from an application file. */
  35:Middlewares/Third_Party/FreeRTOS/Source/stream_buffer.c **** #define MPU_WRAPPERS_INCLUDED_FROM_API_FILE
  36:Middlewares/Third_Party/FreeRTOS/Source/stream_buffer.c **** 
  37:Middlewares/Third_Party/FreeRTOS/Source/stream_buffer.c **** /* FreeRTOS includes. */
  38:Middlewares/Third_Party/FreeRTOS/Source/stream_buffer.c **** #include "FreeRTOS.h"
  39:Middlewares/Third_Party/FreeRTOS/Source/stream_buffer.c **** #include "task.h"
  40:Middlewares/Third_Party/FreeRTOS/Source/stream_buffer.c **** #include "stream_buffer.h"
  41:Middlewares/Third_Party/FreeRTOS/Source/stream_buffer.c **** 
  42:Middlewares/Third_Party/FreeRTOS/Source/stream_buffer.c **** #if( configUSE_TASK_NOTIFICATIONS != 1 )
  43:Middlewares/Third_Party/FreeRTOS/Source/stream_buffer.c **** 	#error configUSE_TASK_NOTIFICATIONS must be set to 1 to build stream_buffer.c
  44:Middlewares/Third_Party/FreeRTOS/Source/stream_buffer.c **** #endif
  45:Middlewares/Third_Party/FreeRTOS/Source/stream_buffer.c **** 
  46:Middlewares/Third_Party/FreeRTOS/Source/stream_buffer.c **** /* Lint e961, e9021 and e750 are suppressed as a MISRA exception justified
  47:Middlewares/Third_Party/FreeRTOS/Source/stream_buffer.c **** because the MPU ports require MPU_WRAPPERS_INCLUDED_FROM_API_FILE to be defined
  48:Middlewares/Third_Party/FreeRTOS/Source/stream_buffer.c **** for the header files above, but not in this file, in order to generate the
  49:Middlewares/Third_Party/FreeRTOS/Source/stream_buffer.c **** correct privileged Vs unprivileged linkage and placement. */
  50:Middlewares/Third_Party/FreeRTOS/Source/stream_buffer.c **** #undef MPU_WRAPPERS_INCLUDED_FROM_API_FILE /*lint !e961 !e750 !e9021. */
  51:Middlewares/Third_Party/FreeRTOS/Source/stream_buffer.c **** 
  52:Middlewares/Third_Party/FreeRTOS/Source/stream_buffer.c **** /* If the user has not provided application specific Rx notification macros,
  53:Middlewares/Third_Party/FreeRTOS/Source/stream_buffer.c **** or #defined the notification macros away, them provide default implementations
  54:Middlewares/Third_Party/FreeRTOS/Source/stream_buffer.c **** that uses task notifications. */
  55:Middlewares/Third_Party/FreeRTOS/Source/stream_buffer.c **** /*lint -save -e9026 Function like macros allowed and needed here so they can be overidden. */
  56:Middlewares/Third_Party/FreeRTOS/Source/stream_buffer.c **** #ifndef sbRECEIVE_COMPLETED
  57:Middlewares/Third_Party/FreeRTOS/Source/stream_buffer.c **** 	#define sbRECEIVE_COMPLETED( pxStreamBuffer )										\
  58:Middlewares/Third_Party/FreeRTOS/Source/stream_buffer.c **** 		vTaskSuspendAll();																\
  59:Middlewares/Third_Party/FreeRTOS/Source/stream_buffer.c **** 		{																				\
  60:Middlewares/Third_Party/FreeRTOS/Source/stream_buffer.c **** 			if( ( pxStreamBuffer )->xTaskWaitingToSend != NULL )						\
  61:Middlewares/Third_Party/FreeRTOS/Source/stream_buffer.c **** 			{																			\
  62:Middlewares/Third_Party/FreeRTOS/Source/stream_buffer.c **** 				( void ) xTaskNotify( ( pxStreamBuffer )->xTaskWaitingToSend,			\
  63:Middlewares/Third_Party/FreeRTOS/Source/stream_buffer.c **** 									  ( uint32_t ) 0,									\
  64:Middlewares/Third_Party/FreeRTOS/Source/stream_buffer.c **** 									  eNoAction );										\
  65:Middlewares/Third_Party/FreeRTOS/Source/stream_buffer.c **** 				( pxStreamBuffer )->xTaskWaitingToSend = NULL;							\
  66:Middlewares/Third_Party/FreeRTOS/Source/stream_buffer.c **** 			}																			\
  67:Middlewares/Third_Party/FreeRTOS/Source/stream_buffer.c **** 		}																				\
  68:Middlewares/Third_Party/FreeRTOS/Source/stream_buffer.c **** 		( void ) xTaskResumeAll();
  69:Middlewares/Third_Party/FreeRTOS/Source/stream_buffer.c **** #endif /* sbRECEIVE_COMPLETED */
  70:Middlewares/Third_Party/FreeRTOS/Source/stream_buffer.c **** 
  71:Middlewares/Third_Party/FreeRTOS/Source/stream_buffer.c **** #ifndef sbRECEIVE_COMPLETED_FROM_ISR
  72:Middlewares/Third_Party/FreeRTOS/Source/stream_buffer.c **** 	#define sbRECEIVE_COMPLETED_FROM_ISR( pxStreamBuffer,								\
  73:Middlewares/Third_Party/FreeRTOS/Source/stream_buffer.c **** 										  pxHigherPriorityTaskWoken )					\
  74:Middlewares/Third_Party/FreeRTOS/Source/stream_buffer.c **** 	{																					\
  75:Middlewares/Third_Party/FreeRTOS/Source/stream_buffer.c **** 	UBaseType_t uxSavedInterruptStatus;													\
  76:Middlewares/Third_Party/FreeRTOS/Source/stream_buffer.c **** 																						\
  77:Middlewares/Third_Party/FreeRTOS/Source/stream_buffer.c **** 		uxSavedInterruptStatus = ( UBaseType_t ) portSET_INTERRUPT_MASK_FROM_ISR();		\
  78:Middlewares/Third_Party/FreeRTOS/Source/stream_buffer.c **** 		{																				\
  79:Middlewares/Third_Party/FreeRTOS/Source/stream_buffer.c **** 			if( ( pxStreamBuffer )->xTaskWaitingToSend != NULL )						\
  80:Middlewares/Third_Party/FreeRTOS/Source/stream_buffer.c **** 			{																			\
  81:Middlewares/Third_Party/FreeRTOS/Source/stream_buffer.c **** 				( void ) xTaskNotifyFromISR( ( pxStreamBuffer )->xTaskWaitingToSend,	\
  82:Middlewares/Third_Party/FreeRTOS/Source/stream_buffer.c **** 											 ( uint32_t ) 0,							\
  83:Middlewares/Third_Party/FreeRTOS/Source/stream_buffer.c **** 											 eNoAction,									\
  84:Middlewares/Third_Party/FreeRTOS/Source/stream_buffer.c **** 											 pxHigherPriorityTaskWoken );				\
  85:Middlewares/Third_Party/FreeRTOS/Source/stream_buffer.c **** 				( pxStreamBuffer )->xTaskWaitingToSend = NULL;							\
  86:Middlewares/Third_Party/FreeRTOS/Source/stream_buffer.c **** 			}																			\
  87:Middlewares/Third_Party/FreeRTOS/Source/stream_buffer.c **** 		}																				\
ARM GAS  /tmp/ccKrWf9C.s 			page 3


  88:Middlewares/Third_Party/FreeRTOS/Source/stream_buffer.c **** 		portCLEAR_INTERRUPT_MASK_FROM_ISR( uxSavedInterruptStatus );					\
  89:Middlewares/Third_Party/FreeRTOS/Source/stream_buffer.c **** 	}
  90:Middlewares/Third_Party/FreeRTOS/Source/stream_buffer.c **** #endif /* sbRECEIVE_COMPLETED_FROM_ISR */
  91:Middlewares/Third_Party/FreeRTOS/Source/stream_buffer.c **** 
  92:Middlewares/Third_Party/FreeRTOS/Source/stream_buffer.c **** /* If the user has not provided an application specific Tx notification macro,
  93:Middlewares/Third_Party/FreeRTOS/Source/stream_buffer.c **** or #defined the notification macro away, them provide a default implementation
  94:Middlewares/Third_Party/FreeRTOS/Source/stream_buffer.c **** that uses task notifications. */
  95:Middlewares/Third_Party/FreeRTOS/Source/stream_buffer.c **** #ifndef sbSEND_COMPLETED
  96:Middlewares/Third_Party/FreeRTOS/Source/stream_buffer.c **** 	#define sbSEND_COMPLETED( pxStreamBuffer )											\
  97:Middlewares/Third_Party/FreeRTOS/Source/stream_buffer.c **** 		vTaskSuspendAll();																\
  98:Middlewares/Third_Party/FreeRTOS/Source/stream_buffer.c **** 		{																				\
  99:Middlewares/Third_Party/FreeRTOS/Source/stream_buffer.c **** 			if( ( pxStreamBuffer )->xTaskWaitingToReceive != NULL )						\
 100:Middlewares/Third_Party/FreeRTOS/Source/stream_buffer.c **** 			{																			\
 101:Middlewares/Third_Party/FreeRTOS/Source/stream_buffer.c **** 				( void ) xTaskNotify( ( pxStreamBuffer )->xTaskWaitingToReceive,		\
 102:Middlewares/Third_Party/FreeRTOS/Source/stream_buffer.c **** 									  ( uint32_t ) 0,									\
 103:Middlewares/Third_Party/FreeRTOS/Source/stream_buffer.c **** 									  eNoAction );										\
 104:Middlewares/Third_Party/FreeRTOS/Source/stream_buffer.c **** 				( pxStreamBuffer )->xTaskWaitingToReceive = NULL;						\
 105:Middlewares/Third_Party/FreeRTOS/Source/stream_buffer.c **** 			}																			\
 106:Middlewares/Third_Party/FreeRTOS/Source/stream_buffer.c **** 		}																				\
 107:Middlewares/Third_Party/FreeRTOS/Source/stream_buffer.c **** 		( void ) xTaskResumeAll();
 108:Middlewares/Third_Party/FreeRTOS/Source/stream_buffer.c **** #endif /* sbSEND_COMPLETED */
 109:Middlewares/Third_Party/FreeRTOS/Source/stream_buffer.c **** 
 110:Middlewares/Third_Party/FreeRTOS/Source/stream_buffer.c **** #ifndef sbSEND_COMPLETE_FROM_ISR
 111:Middlewares/Third_Party/FreeRTOS/Source/stream_buffer.c **** 	#define sbSEND_COMPLETE_FROM_ISR( pxStreamBuffer, pxHigherPriorityTaskWoken )		\
 112:Middlewares/Third_Party/FreeRTOS/Source/stream_buffer.c **** 	{																					\
 113:Middlewares/Third_Party/FreeRTOS/Source/stream_buffer.c **** 	UBaseType_t uxSavedInterruptStatus;													\
 114:Middlewares/Third_Party/FreeRTOS/Source/stream_buffer.c **** 																						\
 115:Middlewares/Third_Party/FreeRTOS/Source/stream_buffer.c **** 		uxSavedInterruptStatus = ( UBaseType_t ) portSET_INTERRUPT_MASK_FROM_ISR();		\
 116:Middlewares/Third_Party/FreeRTOS/Source/stream_buffer.c **** 		{																				\
 117:Middlewares/Third_Party/FreeRTOS/Source/stream_buffer.c **** 			if( ( pxStreamBuffer )->xTaskWaitingToReceive != NULL )						\
 118:Middlewares/Third_Party/FreeRTOS/Source/stream_buffer.c **** 			{																			\
 119:Middlewares/Third_Party/FreeRTOS/Source/stream_buffer.c **** 				( void ) xTaskNotifyFromISR( ( pxStreamBuffer )->xTaskWaitingToReceive,	\
 120:Middlewares/Third_Party/FreeRTOS/Source/stream_buffer.c **** 											 ( uint32_t ) 0,							\
 121:Middlewares/Third_Party/FreeRTOS/Source/stream_buffer.c **** 											 eNoAction,									\
 122:Middlewares/Third_Party/FreeRTOS/Source/stream_buffer.c **** 											 pxHigherPriorityTaskWoken );				\
 123:Middlewares/Third_Party/FreeRTOS/Source/stream_buffer.c **** 				( pxStreamBuffer )->xTaskWaitingToReceive = NULL;						\
 124:Middlewares/Third_Party/FreeRTOS/Source/stream_buffer.c **** 			}																			\
 125:Middlewares/Third_Party/FreeRTOS/Source/stream_buffer.c **** 		}																				\
 126:Middlewares/Third_Party/FreeRTOS/Source/stream_buffer.c **** 		portCLEAR_INTERRUPT_MASK_FROM_ISR( uxSavedInterruptStatus );					\
 127:Middlewares/Third_Party/FreeRTOS/Source/stream_buffer.c **** 	}
 128:Middlewares/Third_Party/FreeRTOS/Source/stream_buffer.c **** #endif /* sbSEND_COMPLETE_FROM_ISR */
 129:Middlewares/Third_Party/FreeRTOS/Source/stream_buffer.c **** /*lint -restore (9026) */
 130:Middlewares/Third_Party/FreeRTOS/Source/stream_buffer.c **** 
 131:Middlewares/Third_Party/FreeRTOS/Source/stream_buffer.c **** /* The number of bytes used to hold the length of a message in the buffer. */
 132:Middlewares/Third_Party/FreeRTOS/Source/stream_buffer.c **** #define sbBYTES_TO_STORE_MESSAGE_LENGTH ( sizeof( configMESSAGE_BUFFER_LENGTH_TYPE ) )
 133:Middlewares/Third_Party/FreeRTOS/Source/stream_buffer.c **** 
 134:Middlewares/Third_Party/FreeRTOS/Source/stream_buffer.c **** /* Bits stored in the ucFlags field of the stream buffer. */
 135:Middlewares/Third_Party/FreeRTOS/Source/stream_buffer.c **** #define sbFLAGS_IS_MESSAGE_BUFFER		( ( uint8_t ) 1 ) /* Set if the stream buffer was created as a m
 136:Middlewares/Third_Party/FreeRTOS/Source/stream_buffer.c **** #define sbFLAGS_IS_STATICALLY_ALLOCATED ( ( uint8_t ) 2 ) /* Set if the stream buffer was created u
 137:Middlewares/Third_Party/FreeRTOS/Source/stream_buffer.c **** 
 138:Middlewares/Third_Party/FreeRTOS/Source/stream_buffer.c **** /*-----------------------------------------------------------*/
 139:Middlewares/Third_Party/FreeRTOS/Source/stream_buffer.c **** 
 140:Middlewares/Third_Party/FreeRTOS/Source/stream_buffer.c **** /* Structure that hold state information on the buffer. */
 141:Middlewares/Third_Party/FreeRTOS/Source/stream_buffer.c **** typedef struct StreamBufferDef_t /*lint !e9058 Style convention uses tag. */
 142:Middlewares/Third_Party/FreeRTOS/Source/stream_buffer.c **** {
 143:Middlewares/Third_Party/FreeRTOS/Source/stream_buffer.c **** 	volatile size_t xTail;				/* Index to the next item to read within the buffer. */
 144:Middlewares/Third_Party/FreeRTOS/Source/stream_buffer.c **** 	volatile size_t xHead;				/* Index to the next item to write within the buffer. */
ARM GAS  /tmp/ccKrWf9C.s 			page 4


 145:Middlewares/Third_Party/FreeRTOS/Source/stream_buffer.c **** 	size_t xLength;						/* The length of the buffer pointed to by pucBuffer. */
 146:Middlewares/Third_Party/FreeRTOS/Source/stream_buffer.c **** 	size_t xTriggerLevelBytes;			/* The number of bytes that must be in the stream buffer before a tas
 147:Middlewares/Third_Party/FreeRTOS/Source/stream_buffer.c **** 	volatile TaskHandle_t xTaskWaitingToReceive; /* Holds the handle of a task waiting for data, or NU
 148:Middlewares/Third_Party/FreeRTOS/Source/stream_buffer.c **** 	volatile TaskHandle_t xTaskWaitingToSend;	/* Holds the handle of a task waiting to send data to a 
 149:Middlewares/Third_Party/FreeRTOS/Source/stream_buffer.c **** 	uint8_t *pucBuffer;					/* Points to the buffer itself - that is - the RAM that stores the data pa
 150:Middlewares/Third_Party/FreeRTOS/Source/stream_buffer.c **** 	uint8_t ucFlags;
 151:Middlewares/Third_Party/FreeRTOS/Source/stream_buffer.c **** 
 152:Middlewares/Third_Party/FreeRTOS/Source/stream_buffer.c **** 	#if ( configUSE_TRACE_FACILITY == 1 )
 153:Middlewares/Third_Party/FreeRTOS/Source/stream_buffer.c **** 		UBaseType_t uxStreamBufferNumber;		/* Used for tracing purposes. */
 154:Middlewares/Third_Party/FreeRTOS/Source/stream_buffer.c **** 	#endif
 155:Middlewares/Third_Party/FreeRTOS/Source/stream_buffer.c **** } StreamBuffer_t;
 156:Middlewares/Third_Party/FreeRTOS/Source/stream_buffer.c **** 
 157:Middlewares/Third_Party/FreeRTOS/Source/stream_buffer.c **** /*
 158:Middlewares/Third_Party/FreeRTOS/Source/stream_buffer.c ****  * The number of bytes available to be read from the buffer.
 159:Middlewares/Third_Party/FreeRTOS/Source/stream_buffer.c ****  */
 160:Middlewares/Third_Party/FreeRTOS/Source/stream_buffer.c **** static size_t prvBytesInBuffer( const StreamBuffer_t * const pxStreamBuffer ) PRIVILEGED_FUNCTION;
 161:Middlewares/Third_Party/FreeRTOS/Source/stream_buffer.c **** 
 162:Middlewares/Third_Party/FreeRTOS/Source/stream_buffer.c **** /*
 163:Middlewares/Third_Party/FreeRTOS/Source/stream_buffer.c ****  * Add xCount bytes from pucData into the pxStreamBuffer message buffer.
 164:Middlewares/Third_Party/FreeRTOS/Source/stream_buffer.c ****  * Returns the number of bytes written, which will either equal xCount in the
 165:Middlewares/Third_Party/FreeRTOS/Source/stream_buffer.c ****  * success case, or 0 if there was not enough space in the buffer (in which case
 166:Middlewares/Third_Party/FreeRTOS/Source/stream_buffer.c ****  * no data is written into the buffer).
 167:Middlewares/Third_Party/FreeRTOS/Source/stream_buffer.c ****  */
 168:Middlewares/Third_Party/FreeRTOS/Source/stream_buffer.c **** static size_t prvWriteBytesToBuffer( StreamBuffer_t * const pxStreamBuffer, const uint8_t *pucData,
 169:Middlewares/Third_Party/FreeRTOS/Source/stream_buffer.c **** 
 170:Middlewares/Third_Party/FreeRTOS/Source/stream_buffer.c **** /*
 171:Middlewares/Third_Party/FreeRTOS/Source/stream_buffer.c ****  * If the stream buffer is being used as a message buffer, then reads an entire
 172:Middlewares/Third_Party/FreeRTOS/Source/stream_buffer.c ****  * message out of the buffer.  If the stream buffer is being used as a stream
 173:Middlewares/Third_Party/FreeRTOS/Source/stream_buffer.c ****  * buffer then read as many bytes as possible from the buffer.
 174:Middlewares/Third_Party/FreeRTOS/Source/stream_buffer.c ****  * prvReadBytesFromBuffer() is called to actually extract the bytes from the
 175:Middlewares/Third_Party/FreeRTOS/Source/stream_buffer.c ****  * buffer's data storage area.
 176:Middlewares/Third_Party/FreeRTOS/Source/stream_buffer.c ****  */
 177:Middlewares/Third_Party/FreeRTOS/Source/stream_buffer.c **** static size_t prvReadMessageFromBuffer( StreamBuffer_t *pxStreamBuffer,
 178:Middlewares/Third_Party/FreeRTOS/Source/stream_buffer.c **** 										void *pvRxData,
 179:Middlewares/Third_Party/FreeRTOS/Source/stream_buffer.c **** 										size_t xBufferLengthBytes,
 180:Middlewares/Third_Party/FreeRTOS/Source/stream_buffer.c **** 										size_t xBytesAvailable,
 181:Middlewares/Third_Party/FreeRTOS/Source/stream_buffer.c **** 										size_t xBytesToStoreMessageLength ) PRIVILEGED_FUNCTION;
 182:Middlewares/Third_Party/FreeRTOS/Source/stream_buffer.c **** 
 183:Middlewares/Third_Party/FreeRTOS/Source/stream_buffer.c **** /*
 184:Middlewares/Third_Party/FreeRTOS/Source/stream_buffer.c ****  * If the stream buffer is being used as a message buffer, then writes an entire
 185:Middlewares/Third_Party/FreeRTOS/Source/stream_buffer.c ****  * message to the buffer.  If the stream buffer is being used as a stream
 186:Middlewares/Third_Party/FreeRTOS/Source/stream_buffer.c ****  * buffer then write as many bytes as possible to the buffer.
 187:Middlewares/Third_Party/FreeRTOS/Source/stream_buffer.c ****  * prvWriteBytestoBuffer() is called to actually send the bytes to the buffer's
 188:Middlewares/Third_Party/FreeRTOS/Source/stream_buffer.c ****  * data storage area.
 189:Middlewares/Third_Party/FreeRTOS/Source/stream_buffer.c ****  */
 190:Middlewares/Third_Party/FreeRTOS/Source/stream_buffer.c **** static size_t prvWriteMessageToBuffer(  StreamBuffer_t * const pxStreamBuffer,
 191:Middlewares/Third_Party/FreeRTOS/Source/stream_buffer.c **** 										const void * pvTxData,
 192:Middlewares/Third_Party/FreeRTOS/Source/stream_buffer.c **** 										size_t xDataLengthBytes,
 193:Middlewares/Third_Party/FreeRTOS/Source/stream_buffer.c **** 										size_t xSpace,
 194:Middlewares/Third_Party/FreeRTOS/Source/stream_buffer.c **** 										size_t xRequiredSpace ) PRIVILEGED_FUNCTION;
 195:Middlewares/Third_Party/FreeRTOS/Source/stream_buffer.c **** 
 196:Middlewares/Third_Party/FreeRTOS/Source/stream_buffer.c **** /*
 197:Middlewares/Third_Party/FreeRTOS/Source/stream_buffer.c ****  * Read xMaxCount bytes from the pxStreamBuffer message buffer and write them
 198:Middlewares/Third_Party/FreeRTOS/Source/stream_buffer.c ****  * to pucData.
 199:Middlewares/Third_Party/FreeRTOS/Source/stream_buffer.c ****  */
 200:Middlewares/Third_Party/FreeRTOS/Source/stream_buffer.c **** static size_t prvReadBytesFromBuffer( StreamBuffer_t *pxStreamBuffer,
 201:Middlewares/Third_Party/FreeRTOS/Source/stream_buffer.c **** 									  uint8_t *pucData,
ARM GAS  /tmp/ccKrWf9C.s 			page 5


 202:Middlewares/Third_Party/FreeRTOS/Source/stream_buffer.c **** 									  size_t xMaxCount,
 203:Middlewares/Third_Party/FreeRTOS/Source/stream_buffer.c **** 									  size_t xBytesAvailable ) PRIVILEGED_FUNCTION;
 204:Middlewares/Third_Party/FreeRTOS/Source/stream_buffer.c **** 
 205:Middlewares/Third_Party/FreeRTOS/Source/stream_buffer.c **** /*
 206:Middlewares/Third_Party/FreeRTOS/Source/stream_buffer.c ****  * Called by both pxStreamBufferCreate() and pxStreamBufferCreateStatic() to
 207:Middlewares/Third_Party/FreeRTOS/Source/stream_buffer.c ****  * initialise the members of the newly created stream buffer structure.
 208:Middlewares/Third_Party/FreeRTOS/Source/stream_buffer.c ****  */
 209:Middlewares/Third_Party/FreeRTOS/Source/stream_buffer.c **** static void prvInitialiseNewStreamBuffer( StreamBuffer_t * const pxStreamBuffer,
 210:Middlewares/Third_Party/FreeRTOS/Source/stream_buffer.c **** 										  uint8_t * const pucBuffer,
 211:Middlewares/Third_Party/FreeRTOS/Source/stream_buffer.c **** 										  size_t xBufferSizeBytes,
 212:Middlewares/Third_Party/FreeRTOS/Source/stream_buffer.c **** 										  size_t xTriggerLevelBytes,
 213:Middlewares/Third_Party/FreeRTOS/Source/stream_buffer.c **** 										  uint8_t ucFlags ) PRIVILEGED_FUNCTION;
 214:Middlewares/Third_Party/FreeRTOS/Source/stream_buffer.c **** 
 215:Middlewares/Third_Party/FreeRTOS/Source/stream_buffer.c **** /*-----------------------------------------------------------*/
 216:Middlewares/Third_Party/FreeRTOS/Source/stream_buffer.c **** 
 217:Middlewares/Third_Party/FreeRTOS/Source/stream_buffer.c **** #if( configSUPPORT_DYNAMIC_ALLOCATION == 1 )
 218:Middlewares/Third_Party/FreeRTOS/Source/stream_buffer.c **** 
 219:Middlewares/Third_Party/FreeRTOS/Source/stream_buffer.c **** 	StreamBufferHandle_t xStreamBufferGenericCreate( size_t xBufferSizeBytes, size_t xTriggerLevelByte
 220:Middlewares/Third_Party/FreeRTOS/Source/stream_buffer.c **** 	{
 221:Middlewares/Third_Party/FreeRTOS/Source/stream_buffer.c **** 	uint8_t *pucAllocatedMemory;
 222:Middlewares/Third_Party/FreeRTOS/Source/stream_buffer.c **** 	uint8_t ucFlags;
 223:Middlewares/Third_Party/FreeRTOS/Source/stream_buffer.c **** 
 224:Middlewares/Third_Party/FreeRTOS/Source/stream_buffer.c **** 		/* In case the stream buffer is going to be used as a message buffer
 225:Middlewares/Third_Party/FreeRTOS/Source/stream_buffer.c **** 		(that is, it will hold discrete messages with a little meta data that
 226:Middlewares/Third_Party/FreeRTOS/Source/stream_buffer.c **** 		says how big the next message is) check the buffer will be large enough
 227:Middlewares/Third_Party/FreeRTOS/Source/stream_buffer.c **** 		to hold at least one message. */
 228:Middlewares/Third_Party/FreeRTOS/Source/stream_buffer.c **** 		if( xIsMessageBuffer == pdTRUE )
 229:Middlewares/Third_Party/FreeRTOS/Source/stream_buffer.c **** 		{
 230:Middlewares/Third_Party/FreeRTOS/Source/stream_buffer.c **** 			/* Is a message buffer but not statically allocated. */
 231:Middlewares/Third_Party/FreeRTOS/Source/stream_buffer.c **** 			ucFlags = sbFLAGS_IS_MESSAGE_BUFFER;
 232:Middlewares/Third_Party/FreeRTOS/Source/stream_buffer.c **** 			configASSERT( xBufferSizeBytes > sbBYTES_TO_STORE_MESSAGE_LENGTH );
 233:Middlewares/Third_Party/FreeRTOS/Source/stream_buffer.c **** 		}
 234:Middlewares/Third_Party/FreeRTOS/Source/stream_buffer.c **** 		else
 235:Middlewares/Third_Party/FreeRTOS/Source/stream_buffer.c **** 		{
 236:Middlewares/Third_Party/FreeRTOS/Source/stream_buffer.c **** 			/* Not a message buffer and not statically allocated. */
 237:Middlewares/Third_Party/FreeRTOS/Source/stream_buffer.c **** 			ucFlags = 0;
 238:Middlewares/Third_Party/FreeRTOS/Source/stream_buffer.c **** 			configASSERT( xBufferSizeBytes > 0 );
 239:Middlewares/Third_Party/FreeRTOS/Source/stream_buffer.c **** 		}
 240:Middlewares/Third_Party/FreeRTOS/Source/stream_buffer.c **** 		configASSERT( xTriggerLevelBytes <= xBufferSizeBytes );
 241:Middlewares/Third_Party/FreeRTOS/Source/stream_buffer.c **** 
 242:Middlewares/Third_Party/FreeRTOS/Source/stream_buffer.c **** 		/* A trigger level of 0 would cause a waiting task to unblock even when
 243:Middlewares/Third_Party/FreeRTOS/Source/stream_buffer.c **** 		the buffer was empty. */
 244:Middlewares/Third_Party/FreeRTOS/Source/stream_buffer.c **** 		if( xTriggerLevelBytes == ( size_t ) 0 )
 245:Middlewares/Third_Party/FreeRTOS/Source/stream_buffer.c **** 		{
 246:Middlewares/Third_Party/FreeRTOS/Source/stream_buffer.c **** 			xTriggerLevelBytes = ( size_t ) 1;
 247:Middlewares/Third_Party/FreeRTOS/Source/stream_buffer.c **** 		}
 248:Middlewares/Third_Party/FreeRTOS/Source/stream_buffer.c **** 
 249:Middlewares/Third_Party/FreeRTOS/Source/stream_buffer.c **** 		/* A stream buffer requires a StreamBuffer_t structure and a buffer.
 250:Middlewares/Third_Party/FreeRTOS/Source/stream_buffer.c **** 		Both are allocated in a single call to pvPortMalloc().  The
 251:Middlewares/Third_Party/FreeRTOS/Source/stream_buffer.c **** 		StreamBuffer_t structure is placed at the start of the allocated memory
 252:Middlewares/Third_Party/FreeRTOS/Source/stream_buffer.c **** 		and the buffer follows immediately after.  The requested size is
 253:Middlewares/Third_Party/FreeRTOS/Source/stream_buffer.c **** 		incremented so the free space is returned as the user would expect -
 254:Middlewares/Third_Party/FreeRTOS/Source/stream_buffer.c **** 		this is a quirk of the implementation that means otherwise the free
 255:Middlewares/Third_Party/FreeRTOS/Source/stream_buffer.c **** 		space would be reported as one byte smaller than would be logically
 256:Middlewares/Third_Party/FreeRTOS/Source/stream_buffer.c **** 		expected. */
 257:Middlewares/Third_Party/FreeRTOS/Source/stream_buffer.c **** 		xBufferSizeBytes++;
 258:Middlewares/Third_Party/FreeRTOS/Source/stream_buffer.c **** 		pucAllocatedMemory = ( uint8_t * ) pvPortMalloc( xBufferSizeBytes + sizeof( StreamBuffer_t ) ); /
ARM GAS  /tmp/ccKrWf9C.s 			page 6


 259:Middlewares/Third_Party/FreeRTOS/Source/stream_buffer.c **** 
 260:Middlewares/Third_Party/FreeRTOS/Source/stream_buffer.c **** 		if( pucAllocatedMemory != NULL )
 261:Middlewares/Third_Party/FreeRTOS/Source/stream_buffer.c **** 		{
 262:Middlewares/Third_Party/FreeRTOS/Source/stream_buffer.c **** 			prvInitialiseNewStreamBuffer( ( StreamBuffer_t * ) pucAllocatedMemory, /* Structure at the start
 263:Middlewares/Third_Party/FreeRTOS/Source/stream_buffer.c **** 										   pucAllocatedMemory + sizeof( StreamBuffer_t ),  /* Storage area follows. */ /*lint !e9
 264:Middlewares/Third_Party/FreeRTOS/Source/stream_buffer.c **** 										   xBufferSizeBytes,
 265:Middlewares/Third_Party/FreeRTOS/Source/stream_buffer.c **** 										   xTriggerLevelBytes,
 266:Middlewares/Third_Party/FreeRTOS/Source/stream_buffer.c **** 										   ucFlags );
 267:Middlewares/Third_Party/FreeRTOS/Source/stream_buffer.c **** 
 268:Middlewares/Third_Party/FreeRTOS/Source/stream_buffer.c **** 			traceSTREAM_BUFFER_CREATE( ( ( StreamBuffer_t * ) pucAllocatedMemory ), xIsMessageBuffer );
 269:Middlewares/Third_Party/FreeRTOS/Source/stream_buffer.c **** 		}
 270:Middlewares/Third_Party/FreeRTOS/Source/stream_buffer.c **** 		else
 271:Middlewares/Third_Party/FreeRTOS/Source/stream_buffer.c **** 		{
 272:Middlewares/Third_Party/FreeRTOS/Source/stream_buffer.c **** 			traceSTREAM_BUFFER_CREATE_FAILED( xIsMessageBuffer );
 273:Middlewares/Third_Party/FreeRTOS/Source/stream_buffer.c **** 		}
 274:Middlewares/Third_Party/FreeRTOS/Source/stream_buffer.c **** 
 275:Middlewares/Third_Party/FreeRTOS/Source/stream_buffer.c **** 		return ( StreamBufferHandle_t ) pucAllocatedMemory; /*lint !e9087 !e826 Safe cast as allocated me
 276:Middlewares/Third_Party/FreeRTOS/Source/stream_buffer.c **** 	}
 277:Middlewares/Third_Party/FreeRTOS/Source/stream_buffer.c **** 
 278:Middlewares/Third_Party/FreeRTOS/Source/stream_buffer.c **** #endif /* configSUPPORT_DYNAMIC_ALLOCATION */
 279:Middlewares/Third_Party/FreeRTOS/Source/stream_buffer.c **** /*-----------------------------------------------------------*/
 280:Middlewares/Third_Party/FreeRTOS/Source/stream_buffer.c **** 
 281:Middlewares/Third_Party/FreeRTOS/Source/stream_buffer.c **** #if( configSUPPORT_STATIC_ALLOCATION == 1 )
 282:Middlewares/Third_Party/FreeRTOS/Source/stream_buffer.c **** 
 283:Middlewares/Third_Party/FreeRTOS/Source/stream_buffer.c **** 	StreamBufferHandle_t xStreamBufferGenericCreateStatic( size_t xBufferSizeBytes,
 284:Middlewares/Third_Party/FreeRTOS/Source/stream_buffer.c **** 														   size_t xTriggerLevelBytes,
 285:Middlewares/Third_Party/FreeRTOS/Source/stream_buffer.c **** 														   BaseType_t xIsMessageBuffer,
 286:Middlewares/Third_Party/FreeRTOS/Source/stream_buffer.c **** 														   uint8_t * const pucStreamBufferStorageArea,
 287:Middlewares/Third_Party/FreeRTOS/Source/stream_buffer.c **** 														   StaticStreamBuffer_t * const pxStaticStreamBuffer )
 288:Middlewares/Third_Party/FreeRTOS/Source/stream_buffer.c **** 	{
 289:Middlewares/Third_Party/FreeRTOS/Source/stream_buffer.c **** 	StreamBuffer_t * const pxStreamBuffer = ( StreamBuffer_t * ) pxStaticStreamBuffer; /*lint !e740 !e
 290:Middlewares/Third_Party/FreeRTOS/Source/stream_buffer.c **** 	StreamBufferHandle_t xReturn;
 291:Middlewares/Third_Party/FreeRTOS/Source/stream_buffer.c **** 	uint8_t ucFlags;
 292:Middlewares/Third_Party/FreeRTOS/Source/stream_buffer.c **** 
 293:Middlewares/Third_Party/FreeRTOS/Source/stream_buffer.c **** 		configASSERT( pucStreamBufferStorageArea );
 294:Middlewares/Third_Party/FreeRTOS/Source/stream_buffer.c **** 		configASSERT( pxStaticStreamBuffer );
 295:Middlewares/Third_Party/FreeRTOS/Source/stream_buffer.c **** 		configASSERT( xTriggerLevelBytes <= xBufferSizeBytes );
 296:Middlewares/Third_Party/FreeRTOS/Source/stream_buffer.c **** 
 297:Middlewares/Third_Party/FreeRTOS/Source/stream_buffer.c **** 		/* A trigger level of 0 would cause a waiting task to unblock even when
 298:Middlewares/Third_Party/FreeRTOS/Source/stream_buffer.c **** 		the buffer was empty. */
 299:Middlewares/Third_Party/FreeRTOS/Source/stream_buffer.c **** 		if( xTriggerLevelBytes == ( size_t ) 0 )
 300:Middlewares/Third_Party/FreeRTOS/Source/stream_buffer.c **** 		{
 301:Middlewares/Third_Party/FreeRTOS/Source/stream_buffer.c **** 			xTriggerLevelBytes = ( size_t ) 1;
 302:Middlewares/Third_Party/FreeRTOS/Source/stream_buffer.c **** 		}
 303:Middlewares/Third_Party/FreeRTOS/Source/stream_buffer.c **** 
 304:Middlewares/Third_Party/FreeRTOS/Source/stream_buffer.c **** 		if( xIsMessageBuffer != pdFALSE )
 305:Middlewares/Third_Party/FreeRTOS/Source/stream_buffer.c **** 		{
 306:Middlewares/Third_Party/FreeRTOS/Source/stream_buffer.c **** 			/* Statically allocated message buffer. */
 307:Middlewares/Third_Party/FreeRTOS/Source/stream_buffer.c **** 			ucFlags = sbFLAGS_IS_MESSAGE_BUFFER | sbFLAGS_IS_STATICALLY_ALLOCATED;
 308:Middlewares/Third_Party/FreeRTOS/Source/stream_buffer.c **** 		}
 309:Middlewares/Third_Party/FreeRTOS/Source/stream_buffer.c **** 		else
 310:Middlewares/Third_Party/FreeRTOS/Source/stream_buffer.c **** 		{
 311:Middlewares/Third_Party/FreeRTOS/Source/stream_buffer.c **** 			/* Statically allocated stream buffer. */
 312:Middlewares/Third_Party/FreeRTOS/Source/stream_buffer.c **** 			ucFlags = sbFLAGS_IS_STATICALLY_ALLOCATED;
 313:Middlewares/Third_Party/FreeRTOS/Source/stream_buffer.c **** 		}
 314:Middlewares/Third_Party/FreeRTOS/Source/stream_buffer.c **** 
 315:Middlewares/Third_Party/FreeRTOS/Source/stream_buffer.c **** 		/* In case the stream buffer is going to be used as a message buffer
ARM GAS  /tmp/ccKrWf9C.s 			page 7


 316:Middlewares/Third_Party/FreeRTOS/Source/stream_buffer.c **** 		(that is, it will hold discrete messages with a little meta data that
 317:Middlewares/Third_Party/FreeRTOS/Source/stream_buffer.c **** 		says how big the next message is) check the buffer will be large enough
 318:Middlewares/Third_Party/FreeRTOS/Source/stream_buffer.c **** 		to hold at least one message. */
 319:Middlewares/Third_Party/FreeRTOS/Source/stream_buffer.c **** 		configASSERT( xBufferSizeBytes > sbBYTES_TO_STORE_MESSAGE_LENGTH );
 320:Middlewares/Third_Party/FreeRTOS/Source/stream_buffer.c **** 
 321:Middlewares/Third_Party/FreeRTOS/Source/stream_buffer.c **** 		#if( configASSERT_DEFINED == 1 )
 322:Middlewares/Third_Party/FreeRTOS/Source/stream_buffer.c **** 		{
 323:Middlewares/Third_Party/FreeRTOS/Source/stream_buffer.c **** 			/* Sanity check that the size of the structure used to declare a
 324:Middlewares/Third_Party/FreeRTOS/Source/stream_buffer.c **** 			variable of type StaticStreamBuffer_t equals the size of the real
 325:Middlewares/Third_Party/FreeRTOS/Source/stream_buffer.c **** 			message buffer structure. */
 326:Middlewares/Third_Party/FreeRTOS/Source/stream_buffer.c **** 			volatile size_t xSize = sizeof( StaticStreamBuffer_t );
 327:Middlewares/Third_Party/FreeRTOS/Source/stream_buffer.c **** 			configASSERT( xSize == sizeof( StreamBuffer_t ) );
 328:Middlewares/Third_Party/FreeRTOS/Source/stream_buffer.c **** 		} /*lint !e529 xSize is referenced is configASSERT() is defined. */
 329:Middlewares/Third_Party/FreeRTOS/Source/stream_buffer.c **** 		#endif /* configASSERT_DEFINED */
 330:Middlewares/Third_Party/FreeRTOS/Source/stream_buffer.c **** 
 331:Middlewares/Third_Party/FreeRTOS/Source/stream_buffer.c **** 		if( ( pucStreamBufferStorageArea != NULL ) && ( pxStaticStreamBuffer != NULL ) )
 332:Middlewares/Third_Party/FreeRTOS/Source/stream_buffer.c **** 		{
 333:Middlewares/Third_Party/FreeRTOS/Source/stream_buffer.c **** 			prvInitialiseNewStreamBuffer( pxStreamBuffer,
 334:Middlewares/Third_Party/FreeRTOS/Source/stream_buffer.c **** 										  pucStreamBufferStorageArea,
 335:Middlewares/Third_Party/FreeRTOS/Source/stream_buffer.c **** 										  xBufferSizeBytes,
 336:Middlewares/Third_Party/FreeRTOS/Source/stream_buffer.c **** 										  xTriggerLevelBytes,
 337:Middlewares/Third_Party/FreeRTOS/Source/stream_buffer.c **** 										  ucFlags );
 338:Middlewares/Third_Party/FreeRTOS/Source/stream_buffer.c **** 
 339:Middlewares/Third_Party/FreeRTOS/Source/stream_buffer.c **** 			/* Remember this was statically allocated in case it is ever deleted
 340:Middlewares/Third_Party/FreeRTOS/Source/stream_buffer.c **** 			again. */
 341:Middlewares/Third_Party/FreeRTOS/Source/stream_buffer.c **** 			pxStreamBuffer->ucFlags |= sbFLAGS_IS_STATICALLY_ALLOCATED;
 342:Middlewares/Third_Party/FreeRTOS/Source/stream_buffer.c **** 
 343:Middlewares/Third_Party/FreeRTOS/Source/stream_buffer.c **** 			traceSTREAM_BUFFER_CREATE( pxStreamBuffer, xIsMessageBuffer );
 344:Middlewares/Third_Party/FreeRTOS/Source/stream_buffer.c **** 
 345:Middlewares/Third_Party/FreeRTOS/Source/stream_buffer.c **** 			xReturn = ( StreamBufferHandle_t ) pxStaticStreamBuffer; /*lint !e9087 Data hiding requires cast
 346:Middlewares/Third_Party/FreeRTOS/Source/stream_buffer.c **** 		}
 347:Middlewares/Third_Party/FreeRTOS/Source/stream_buffer.c **** 		else
 348:Middlewares/Third_Party/FreeRTOS/Source/stream_buffer.c **** 		{
 349:Middlewares/Third_Party/FreeRTOS/Source/stream_buffer.c **** 			xReturn = NULL;
 350:Middlewares/Third_Party/FreeRTOS/Source/stream_buffer.c **** 			traceSTREAM_BUFFER_CREATE_STATIC_FAILED( xReturn, xIsMessageBuffer );
 351:Middlewares/Third_Party/FreeRTOS/Source/stream_buffer.c **** 		}
 352:Middlewares/Third_Party/FreeRTOS/Source/stream_buffer.c **** 
 353:Middlewares/Third_Party/FreeRTOS/Source/stream_buffer.c **** 		return xReturn;
 354:Middlewares/Third_Party/FreeRTOS/Source/stream_buffer.c **** 	}
 355:Middlewares/Third_Party/FreeRTOS/Source/stream_buffer.c **** 
 356:Middlewares/Third_Party/FreeRTOS/Source/stream_buffer.c **** #endif /* ( configSUPPORT_STATIC_ALLOCATION == 1 ) */
 357:Middlewares/Third_Party/FreeRTOS/Source/stream_buffer.c **** /*-----------------------------------------------------------*/
 358:Middlewares/Third_Party/FreeRTOS/Source/stream_buffer.c **** 
 359:Middlewares/Third_Party/FreeRTOS/Source/stream_buffer.c **** void vStreamBufferDelete( StreamBufferHandle_t xStreamBuffer )
 360:Middlewares/Third_Party/FreeRTOS/Source/stream_buffer.c **** {
 361:Middlewares/Third_Party/FreeRTOS/Source/stream_buffer.c **** StreamBuffer_t * pxStreamBuffer = xStreamBuffer;
 362:Middlewares/Third_Party/FreeRTOS/Source/stream_buffer.c **** 
 363:Middlewares/Third_Party/FreeRTOS/Source/stream_buffer.c **** 	configASSERT( pxStreamBuffer );
 364:Middlewares/Third_Party/FreeRTOS/Source/stream_buffer.c **** 
 365:Middlewares/Third_Party/FreeRTOS/Source/stream_buffer.c **** 	traceSTREAM_BUFFER_DELETE( xStreamBuffer );
 366:Middlewares/Third_Party/FreeRTOS/Source/stream_buffer.c **** 
 367:Middlewares/Third_Party/FreeRTOS/Source/stream_buffer.c **** 	if( ( pxStreamBuffer->ucFlags & sbFLAGS_IS_STATICALLY_ALLOCATED ) == ( uint8_t ) pdFALSE )
 368:Middlewares/Third_Party/FreeRTOS/Source/stream_buffer.c **** 	{
 369:Middlewares/Third_Party/FreeRTOS/Source/stream_buffer.c **** 		#if( configSUPPORT_DYNAMIC_ALLOCATION == 1 )
 370:Middlewares/Third_Party/FreeRTOS/Source/stream_buffer.c **** 		{
 371:Middlewares/Third_Party/FreeRTOS/Source/stream_buffer.c **** 			/* Both the structure and the buffer were allocated using a single call
 372:Middlewares/Third_Party/FreeRTOS/Source/stream_buffer.c **** 			to pvPortMalloc(), hence only one call to vPortFree() is required. */
ARM GAS  /tmp/ccKrWf9C.s 			page 8


 373:Middlewares/Third_Party/FreeRTOS/Source/stream_buffer.c **** 			vPortFree( ( void * ) pxStreamBuffer ); /*lint !e9087 Standard free() semantics require void *, 
 374:Middlewares/Third_Party/FreeRTOS/Source/stream_buffer.c **** 		}
 375:Middlewares/Third_Party/FreeRTOS/Source/stream_buffer.c **** 		#else
 376:Middlewares/Third_Party/FreeRTOS/Source/stream_buffer.c **** 		{
 377:Middlewares/Third_Party/FreeRTOS/Source/stream_buffer.c **** 			/* Should not be possible to get here, ucFlags must be corrupt.
 378:Middlewares/Third_Party/FreeRTOS/Source/stream_buffer.c **** 			Force an assert. */
 379:Middlewares/Third_Party/FreeRTOS/Source/stream_buffer.c **** 			configASSERT( xStreamBuffer == ( StreamBufferHandle_t ) ~0 );
 380:Middlewares/Third_Party/FreeRTOS/Source/stream_buffer.c **** 		}
 381:Middlewares/Third_Party/FreeRTOS/Source/stream_buffer.c **** 		#endif
 382:Middlewares/Third_Party/FreeRTOS/Source/stream_buffer.c **** 	}
 383:Middlewares/Third_Party/FreeRTOS/Source/stream_buffer.c **** 	else
 384:Middlewares/Third_Party/FreeRTOS/Source/stream_buffer.c **** 	{
 385:Middlewares/Third_Party/FreeRTOS/Source/stream_buffer.c **** 		/* The structure and buffer were not allocated dynamically and cannot be
 386:Middlewares/Third_Party/FreeRTOS/Source/stream_buffer.c **** 		freed - just scrub the structure so future use will assert. */
 387:Middlewares/Third_Party/FreeRTOS/Source/stream_buffer.c **** 		( void ) memset( pxStreamBuffer, 0x00, sizeof( StreamBuffer_t ) );
 388:Middlewares/Third_Party/FreeRTOS/Source/stream_buffer.c **** 	}
 389:Middlewares/Third_Party/FreeRTOS/Source/stream_buffer.c **** }
 390:Middlewares/Third_Party/FreeRTOS/Source/stream_buffer.c **** /*-----------------------------------------------------------*/
 391:Middlewares/Third_Party/FreeRTOS/Source/stream_buffer.c **** 
 392:Middlewares/Third_Party/FreeRTOS/Source/stream_buffer.c **** BaseType_t xStreamBufferReset( StreamBufferHandle_t xStreamBuffer )
 393:Middlewares/Third_Party/FreeRTOS/Source/stream_buffer.c **** {
 394:Middlewares/Third_Party/FreeRTOS/Source/stream_buffer.c **** StreamBuffer_t * const pxStreamBuffer = xStreamBuffer;
 395:Middlewares/Third_Party/FreeRTOS/Source/stream_buffer.c **** BaseType_t xReturn = pdFAIL;
 396:Middlewares/Third_Party/FreeRTOS/Source/stream_buffer.c **** 
 397:Middlewares/Third_Party/FreeRTOS/Source/stream_buffer.c **** #if( configUSE_TRACE_FACILITY == 1 )
 398:Middlewares/Third_Party/FreeRTOS/Source/stream_buffer.c **** 	UBaseType_t uxStreamBufferNumber;
 399:Middlewares/Third_Party/FreeRTOS/Source/stream_buffer.c **** #endif
 400:Middlewares/Third_Party/FreeRTOS/Source/stream_buffer.c **** 
 401:Middlewares/Third_Party/FreeRTOS/Source/stream_buffer.c **** 	configASSERT( pxStreamBuffer );
 402:Middlewares/Third_Party/FreeRTOS/Source/stream_buffer.c **** 
 403:Middlewares/Third_Party/FreeRTOS/Source/stream_buffer.c **** 	#if( configUSE_TRACE_FACILITY == 1 )
 404:Middlewares/Third_Party/FreeRTOS/Source/stream_buffer.c **** 	{
 405:Middlewares/Third_Party/FreeRTOS/Source/stream_buffer.c **** 		/* Store the stream buffer number so it can be restored after the
 406:Middlewares/Third_Party/FreeRTOS/Source/stream_buffer.c **** 		reset. */
 407:Middlewares/Third_Party/FreeRTOS/Source/stream_buffer.c **** 		uxStreamBufferNumber = pxStreamBuffer->uxStreamBufferNumber;
 408:Middlewares/Third_Party/FreeRTOS/Source/stream_buffer.c **** 	}
 409:Middlewares/Third_Party/FreeRTOS/Source/stream_buffer.c **** 	#endif
 410:Middlewares/Third_Party/FreeRTOS/Source/stream_buffer.c **** 
 411:Middlewares/Third_Party/FreeRTOS/Source/stream_buffer.c **** 	/* Can only reset a message buffer if there are no tasks blocked on it. */
 412:Middlewares/Third_Party/FreeRTOS/Source/stream_buffer.c **** 	taskENTER_CRITICAL();
 413:Middlewares/Third_Party/FreeRTOS/Source/stream_buffer.c **** 	{
 414:Middlewares/Third_Party/FreeRTOS/Source/stream_buffer.c **** 		if( pxStreamBuffer->xTaskWaitingToReceive == NULL )
 415:Middlewares/Third_Party/FreeRTOS/Source/stream_buffer.c **** 		{
 416:Middlewares/Third_Party/FreeRTOS/Source/stream_buffer.c **** 			if( pxStreamBuffer->xTaskWaitingToSend == NULL )
 417:Middlewares/Third_Party/FreeRTOS/Source/stream_buffer.c **** 			{
 418:Middlewares/Third_Party/FreeRTOS/Source/stream_buffer.c **** 				prvInitialiseNewStreamBuffer( pxStreamBuffer,
 419:Middlewares/Third_Party/FreeRTOS/Source/stream_buffer.c **** 											  pxStreamBuffer->pucBuffer,
 420:Middlewares/Third_Party/FreeRTOS/Source/stream_buffer.c **** 											  pxStreamBuffer->xLength,
 421:Middlewares/Third_Party/FreeRTOS/Source/stream_buffer.c **** 											  pxStreamBuffer->xTriggerLevelBytes,
 422:Middlewares/Third_Party/FreeRTOS/Source/stream_buffer.c **** 											  pxStreamBuffer->ucFlags );
 423:Middlewares/Third_Party/FreeRTOS/Source/stream_buffer.c **** 				xReturn = pdPASS;
 424:Middlewares/Third_Party/FreeRTOS/Source/stream_buffer.c **** 
 425:Middlewares/Third_Party/FreeRTOS/Source/stream_buffer.c **** 				#if( configUSE_TRACE_FACILITY == 1 )
 426:Middlewares/Third_Party/FreeRTOS/Source/stream_buffer.c **** 				{
 427:Middlewares/Third_Party/FreeRTOS/Source/stream_buffer.c **** 					pxStreamBuffer->uxStreamBufferNumber = uxStreamBufferNumber;
 428:Middlewares/Third_Party/FreeRTOS/Source/stream_buffer.c **** 				}
 429:Middlewares/Third_Party/FreeRTOS/Source/stream_buffer.c **** 				#endif
ARM GAS  /tmp/ccKrWf9C.s 			page 9


 430:Middlewares/Third_Party/FreeRTOS/Source/stream_buffer.c **** 
 431:Middlewares/Third_Party/FreeRTOS/Source/stream_buffer.c **** 				traceSTREAM_BUFFER_RESET( xStreamBuffer );
 432:Middlewares/Third_Party/FreeRTOS/Source/stream_buffer.c **** 			}
 433:Middlewares/Third_Party/FreeRTOS/Source/stream_buffer.c **** 		}
 434:Middlewares/Third_Party/FreeRTOS/Source/stream_buffer.c **** 	}
 435:Middlewares/Third_Party/FreeRTOS/Source/stream_buffer.c **** 	taskEXIT_CRITICAL();
 436:Middlewares/Third_Party/FreeRTOS/Source/stream_buffer.c **** 
 437:Middlewares/Third_Party/FreeRTOS/Source/stream_buffer.c **** 	return xReturn;
 438:Middlewares/Third_Party/FreeRTOS/Source/stream_buffer.c **** }
 439:Middlewares/Third_Party/FreeRTOS/Source/stream_buffer.c **** /*-----------------------------------------------------------*/
 440:Middlewares/Third_Party/FreeRTOS/Source/stream_buffer.c **** 
 441:Middlewares/Third_Party/FreeRTOS/Source/stream_buffer.c **** BaseType_t xStreamBufferSetTriggerLevel( StreamBufferHandle_t xStreamBuffer, size_t xTriggerLevel )
 442:Middlewares/Third_Party/FreeRTOS/Source/stream_buffer.c **** {
 443:Middlewares/Third_Party/FreeRTOS/Source/stream_buffer.c **** StreamBuffer_t * const pxStreamBuffer = xStreamBuffer;
 444:Middlewares/Third_Party/FreeRTOS/Source/stream_buffer.c **** BaseType_t xReturn;
 445:Middlewares/Third_Party/FreeRTOS/Source/stream_buffer.c **** 
 446:Middlewares/Third_Party/FreeRTOS/Source/stream_buffer.c **** 	configASSERT( pxStreamBuffer );
 447:Middlewares/Third_Party/FreeRTOS/Source/stream_buffer.c **** 
 448:Middlewares/Third_Party/FreeRTOS/Source/stream_buffer.c **** 	/* It is not valid for the trigger level to be 0. */
 449:Middlewares/Third_Party/FreeRTOS/Source/stream_buffer.c **** 	if( xTriggerLevel == ( size_t ) 0 )
 450:Middlewares/Third_Party/FreeRTOS/Source/stream_buffer.c **** 	{
 451:Middlewares/Third_Party/FreeRTOS/Source/stream_buffer.c **** 		xTriggerLevel = ( size_t ) 1;
 452:Middlewares/Third_Party/FreeRTOS/Source/stream_buffer.c **** 	}
 453:Middlewares/Third_Party/FreeRTOS/Source/stream_buffer.c **** 
 454:Middlewares/Third_Party/FreeRTOS/Source/stream_buffer.c **** 	/* The trigger level is the number of bytes that must be in the stream
 455:Middlewares/Third_Party/FreeRTOS/Source/stream_buffer.c **** 	buffer before a task that is waiting for data is unblocked. */
 456:Middlewares/Third_Party/FreeRTOS/Source/stream_buffer.c **** 	if( xTriggerLevel <= pxStreamBuffer->xLength )
 457:Middlewares/Third_Party/FreeRTOS/Source/stream_buffer.c **** 	{
 458:Middlewares/Third_Party/FreeRTOS/Source/stream_buffer.c **** 		pxStreamBuffer->xTriggerLevelBytes = xTriggerLevel;
 459:Middlewares/Third_Party/FreeRTOS/Source/stream_buffer.c **** 		xReturn = pdPASS;
 460:Middlewares/Third_Party/FreeRTOS/Source/stream_buffer.c **** 	}
 461:Middlewares/Third_Party/FreeRTOS/Source/stream_buffer.c **** 	else
 462:Middlewares/Third_Party/FreeRTOS/Source/stream_buffer.c **** 	{
 463:Middlewares/Third_Party/FreeRTOS/Source/stream_buffer.c **** 		xReturn = pdFALSE;
 464:Middlewares/Third_Party/FreeRTOS/Source/stream_buffer.c **** 	}
 465:Middlewares/Third_Party/FreeRTOS/Source/stream_buffer.c **** 
 466:Middlewares/Third_Party/FreeRTOS/Source/stream_buffer.c **** 	return xReturn;
 467:Middlewares/Third_Party/FreeRTOS/Source/stream_buffer.c **** }
 468:Middlewares/Third_Party/FreeRTOS/Source/stream_buffer.c **** /*-----------------------------------------------------------*/
 469:Middlewares/Third_Party/FreeRTOS/Source/stream_buffer.c **** 
 470:Middlewares/Third_Party/FreeRTOS/Source/stream_buffer.c **** size_t xStreamBufferSpacesAvailable( StreamBufferHandle_t xStreamBuffer )
 471:Middlewares/Third_Party/FreeRTOS/Source/stream_buffer.c **** {
 472:Middlewares/Third_Party/FreeRTOS/Source/stream_buffer.c **** const StreamBuffer_t * const pxStreamBuffer = xStreamBuffer;
 473:Middlewares/Third_Party/FreeRTOS/Source/stream_buffer.c **** size_t xSpace;
 474:Middlewares/Third_Party/FreeRTOS/Source/stream_buffer.c **** 
 475:Middlewares/Third_Party/FreeRTOS/Source/stream_buffer.c **** 	configASSERT( pxStreamBuffer );
 476:Middlewares/Third_Party/FreeRTOS/Source/stream_buffer.c **** 
 477:Middlewares/Third_Party/FreeRTOS/Source/stream_buffer.c **** 	xSpace = pxStreamBuffer->xLength + pxStreamBuffer->xTail;
 478:Middlewares/Third_Party/FreeRTOS/Source/stream_buffer.c **** 	xSpace -= pxStreamBuffer->xHead;
 479:Middlewares/Third_Party/FreeRTOS/Source/stream_buffer.c **** 	xSpace -= ( size_t ) 1;
 480:Middlewares/Third_Party/FreeRTOS/Source/stream_buffer.c **** 
 481:Middlewares/Third_Party/FreeRTOS/Source/stream_buffer.c **** 	if( xSpace >= pxStreamBuffer->xLength )
 482:Middlewares/Third_Party/FreeRTOS/Source/stream_buffer.c **** 	{
 483:Middlewares/Third_Party/FreeRTOS/Source/stream_buffer.c **** 		xSpace -= pxStreamBuffer->xLength;
 484:Middlewares/Third_Party/FreeRTOS/Source/stream_buffer.c **** 	}
 485:Middlewares/Third_Party/FreeRTOS/Source/stream_buffer.c **** 	else
 486:Middlewares/Third_Party/FreeRTOS/Source/stream_buffer.c **** 	{
ARM GAS  /tmp/ccKrWf9C.s 			page 10


 487:Middlewares/Third_Party/FreeRTOS/Source/stream_buffer.c **** 		mtCOVERAGE_TEST_MARKER();
 488:Middlewares/Third_Party/FreeRTOS/Source/stream_buffer.c **** 	}
 489:Middlewares/Third_Party/FreeRTOS/Source/stream_buffer.c **** 
 490:Middlewares/Third_Party/FreeRTOS/Source/stream_buffer.c **** 	return xSpace;
 491:Middlewares/Third_Party/FreeRTOS/Source/stream_buffer.c **** }
 492:Middlewares/Third_Party/FreeRTOS/Source/stream_buffer.c **** /*-----------------------------------------------------------*/
 493:Middlewares/Third_Party/FreeRTOS/Source/stream_buffer.c **** 
 494:Middlewares/Third_Party/FreeRTOS/Source/stream_buffer.c **** size_t xStreamBufferBytesAvailable( StreamBufferHandle_t xStreamBuffer )
 495:Middlewares/Third_Party/FreeRTOS/Source/stream_buffer.c **** {
 496:Middlewares/Third_Party/FreeRTOS/Source/stream_buffer.c **** const StreamBuffer_t * const pxStreamBuffer = xStreamBuffer;
 497:Middlewares/Third_Party/FreeRTOS/Source/stream_buffer.c **** size_t xReturn;
 498:Middlewares/Third_Party/FreeRTOS/Source/stream_buffer.c **** 
 499:Middlewares/Third_Party/FreeRTOS/Source/stream_buffer.c **** 	configASSERT( pxStreamBuffer );
 500:Middlewares/Third_Party/FreeRTOS/Source/stream_buffer.c **** 
 501:Middlewares/Third_Party/FreeRTOS/Source/stream_buffer.c **** 	xReturn = prvBytesInBuffer( pxStreamBuffer );
 502:Middlewares/Third_Party/FreeRTOS/Source/stream_buffer.c **** 	return xReturn;
 503:Middlewares/Third_Party/FreeRTOS/Source/stream_buffer.c **** }
 504:Middlewares/Third_Party/FreeRTOS/Source/stream_buffer.c **** /*-----------------------------------------------------------*/
 505:Middlewares/Third_Party/FreeRTOS/Source/stream_buffer.c **** 
 506:Middlewares/Third_Party/FreeRTOS/Source/stream_buffer.c **** size_t xStreamBufferSend( StreamBufferHandle_t xStreamBuffer,
 507:Middlewares/Third_Party/FreeRTOS/Source/stream_buffer.c **** 						  const void *pvTxData,
 508:Middlewares/Third_Party/FreeRTOS/Source/stream_buffer.c **** 						  size_t xDataLengthBytes,
 509:Middlewares/Third_Party/FreeRTOS/Source/stream_buffer.c **** 						  TickType_t xTicksToWait )
 510:Middlewares/Third_Party/FreeRTOS/Source/stream_buffer.c **** {
 511:Middlewares/Third_Party/FreeRTOS/Source/stream_buffer.c **** StreamBuffer_t * const pxStreamBuffer = xStreamBuffer;
 512:Middlewares/Third_Party/FreeRTOS/Source/stream_buffer.c **** size_t xReturn, xSpace = 0;
 513:Middlewares/Third_Party/FreeRTOS/Source/stream_buffer.c **** size_t xRequiredSpace = xDataLengthBytes;
 514:Middlewares/Third_Party/FreeRTOS/Source/stream_buffer.c **** TimeOut_t xTimeOut;
 515:Middlewares/Third_Party/FreeRTOS/Source/stream_buffer.c **** 
 516:Middlewares/Third_Party/FreeRTOS/Source/stream_buffer.c **** 	configASSERT( pvTxData );
 517:Middlewares/Third_Party/FreeRTOS/Source/stream_buffer.c **** 	configASSERT( pxStreamBuffer );
 518:Middlewares/Third_Party/FreeRTOS/Source/stream_buffer.c **** 
 519:Middlewares/Third_Party/FreeRTOS/Source/stream_buffer.c **** 	/* This send function is used to write to both message buffers and stream
 520:Middlewares/Third_Party/FreeRTOS/Source/stream_buffer.c **** 	buffers.  If this is a message buffer then the space needed must be
 521:Middlewares/Third_Party/FreeRTOS/Source/stream_buffer.c **** 	increased by the amount of bytes needed to store the length of the
 522:Middlewares/Third_Party/FreeRTOS/Source/stream_buffer.c **** 	message. */
 523:Middlewares/Third_Party/FreeRTOS/Source/stream_buffer.c **** 	if( ( pxStreamBuffer->ucFlags & sbFLAGS_IS_MESSAGE_BUFFER ) != ( uint8_t ) 0 )
 524:Middlewares/Third_Party/FreeRTOS/Source/stream_buffer.c **** 	{
 525:Middlewares/Third_Party/FreeRTOS/Source/stream_buffer.c **** 		xRequiredSpace += sbBYTES_TO_STORE_MESSAGE_LENGTH;
 526:Middlewares/Third_Party/FreeRTOS/Source/stream_buffer.c **** 
 527:Middlewares/Third_Party/FreeRTOS/Source/stream_buffer.c **** 		/* Overflow? */
 528:Middlewares/Third_Party/FreeRTOS/Source/stream_buffer.c **** 		configASSERT( xRequiredSpace > xDataLengthBytes );
 529:Middlewares/Third_Party/FreeRTOS/Source/stream_buffer.c **** 	}
 530:Middlewares/Third_Party/FreeRTOS/Source/stream_buffer.c **** 	else
 531:Middlewares/Third_Party/FreeRTOS/Source/stream_buffer.c **** 	{
 532:Middlewares/Third_Party/FreeRTOS/Source/stream_buffer.c **** 		mtCOVERAGE_TEST_MARKER();
 533:Middlewares/Third_Party/FreeRTOS/Source/stream_buffer.c **** 	}
 534:Middlewares/Third_Party/FreeRTOS/Source/stream_buffer.c **** 
 535:Middlewares/Third_Party/FreeRTOS/Source/stream_buffer.c **** 	if( xTicksToWait != ( TickType_t ) 0 )
 536:Middlewares/Third_Party/FreeRTOS/Source/stream_buffer.c **** 	{
 537:Middlewares/Third_Party/FreeRTOS/Source/stream_buffer.c **** 		vTaskSetTimeOutState( &xTimeOut );
 538:Middlewares/Third_Party/FreeRTOS/Source/stream_buffer.c **** 
 539:Middlewares/Third_Party/FreeRTOS/Source/stream_buffer.c **** 		do
 540:Middlewares/Third_Party/FreeRTOS/Source/stream_buffer.c **** 		{
 541:Middlewares/Third_Party/FreeRTOS/Source/stream_buffer.c **** 			/* Wait until the required number of bytes are free in the message
 542:Middlewares/Third_Party/FreeRTOS/Source/stream_buffer.c **** 			buffer. */
 543:Middlewares/Third_Party/FreeRTOS/Source/stream_buffer.c **** 			taskENTER_CRITICAL();
ARM GAS  /tmp/ccKrWf9C.s 			page 11


 544:Middlewares/Third_Party/FreeRTOS/Source/stream_buffer.c **** 			{
 545:Middlewares/Third_Party/FreeRTOS/Source/stream_buffer.c **** 				xSpace = xStreamBufferSpacesAvailable( pxStreamBuffer );
 546:Middlewares/Third_Party/FreeRTOS/Source/stream_buffer.c **** 
 547:Middlewares/Third_Party/FreeRTOS/Source/stream_buffer.c **** 				if( xSpace < xRequiredSpace )
 548:Middlewares/Third_Party/FreeRTOS/Source/stream_buffer.c **** 				{
 549:Middlewares/Third_Party/FreeRTOS/Source/stream_buffer.c **** 					/* Clear notification state as going to wait for space. */
 550:Middlewares/Third_Party/FreeRTOS/Source/stream_buffer.c **** 					( void ) xTaskNotifyStateClear( NULL );
 551:Middlewares/Third_Party/FreeRTOS/Source/stream_buffer.c **** 
 552:Middlewares/Third_Party/FreeRTOS/Source/stream_buffer.c **** 					/* Should only be one writer. */
 553:Middlewares/Third_Party/FreeRTOS/Source/stream_buffer.c **** 					configASSERT( pxStreamBuffer->xTaskWaitingToSend == NULL );
 554:Middlewares/Third_Party/FreeRTOS/Source/stream_buffer.c **** 					pxStreamBuffer->xTaskWaitingToSend = xTaskGetCurrentTaskHandle();
 555:Middlewares/Third_Party/FreeRTOS/Source/stream_buffer.c **** 				}
 556:Middlewares/Third_Party/FreeRTOS/Source/stream_buffer.c **** 				else
 557:Middlewares/Third_Party/FreeRTOS/Source/stream_buffer.c **** 				{
 558:Middlewares/Third_Party/FreeRTOS/Source/stream_buffer.c **** 					taskEXIT_CRITICAL();
 559:Middlewares/Third_Party/FreeRTOS/Source/stream_buffer.c **** 					break;
 560:Middlewares/Third_Party/FreeRTOS/Source/stream_buffer.c **** 				}
 561:Middlewares/Third_Party/FreeRTOS/Source/stream_buffer.c **** 			}
 562:Middlewares/Third_Party/FreeRTOS/Source/stream_buffer.c **** 			taskEXIT_CRITICAL();
 563:Middlewares/Third_Party/FreeRTOS/Source/stream_buffer.c **** 
 564:Middlewares/Third_Party/FreeRTOS/Source/stream_buffer.c **** 			traceBLOCKING_ON_STREAM_BUFFER_SEND( xStreamBuffer );
 565:Middlewares/Third_Party/FreeRTOS/Source/stream_buffer.c **** 			( void ) xTaskNotifyWait( ( uint32_t ) 0, ( uint32_t ) 0, NULL, xTicksToWait );
 566:Middlewares/Third_Party/FreeRTOS/Source/stream_buffer.c **** 			pxStreamBuffer->xTaskWaitingToSend = NULL;
 567:Middlewares/Third_Party/FreeRTOS/Source/stream_buffer.c **** 
 568:Middlewares/Third_Party/FreeRTOS/Source/stream_buffer.c **** 		} while( xTaskCheckForTimeOut( &xTimeOut, &xTicksToWait ) == pdFALSE );
 569:Middlewares/Third_Party/FreeRTOS/Source/stream_buffer.c **** 	}
 570:Middlewares/Third_Party/FreeRTOS/Source/stream_buffer.c **** 	else
 571:Middlewares/Third_Party/FreeRTOS/Source/stream_buffer.c **** 	{
 572:Middlewares/Third_Party/FreeRTOS/Source/stream_buffer.c **** 		mtCOVERAGE_TEST_MARKER();
 573:Middlewares/Third_Party/FreeRTOS/Source/stream_buffer.c **** 	}
 574:Middlewares/Third_Party/FreeRTOS/Source/stream_buffer.c **** 
 575:Middlewares/Third_Party/FreeRTOS/Source/stream_buffer.c **** 	if( xSpace == ( size_t ) 0 )
 576:Middlewares/Third_Party/FreeRTOS/Source/stream_buffer.c **** 	{
 577:Middlewares/Third_Party/FreeRTOS/Source/stream_buffer.c **** 		xSpace = xStreamBufferSpacesAvailable( pxStreamBuffer );
 578:Middlewares/Third_Party/FreeRTOS/Source/stream_buffer.c **** 	}
 579:Middlewares/Third_Party/FreeRTOS/Source/stream_buffer.c **** 	else
 580:Middlewares/Third_Party/FreeRTOS/Source/stream_buffer.c **** 	{
 581:Middlewares/Third_Party/FreeRTOS/Source/stream_buffer.c **** 		mtCOVERAGE_TEST_MARKER();
 582:Middlewares/Third_Party/FreeRTOS/Source/stream_buffer.c **** 	}
 583:Middlewares/Third_Party/FreeRTOS/Source/stream_buffer.c **** 
 584:Middlewares/Third_Party/FreeRTOS/Source/stream_buffer.c **** 	xReturn = prvWriteMessageToBuffer( pxStreamBuffer, pvTxData, xDataLengthBytes, xSpace, xRequiredSp
 585:Middlewares/Third_Party/FreeRTOS/Source/stream_buffer.c **** 
 586:Middlewares/Third_Party/FreeRTOS/Source/stream_buffer.c **** 	if( xReturn > ( size_t ) 0 )
 587:Middlewares/Third_Party/FreeRTOS/Source/stream_buffer.c **** 	{
 588:Middlewares/Third_Party/FreeRTOS/Source/stream_buffer.c **** 		traceSTREAM_BUFFER_SEND( xStreamBuffer, xReturn );
 589:Middlewares/Third_Party/FreeRTOS/Source/stream_buffer.c **** 
 590:Middlewares/Third_Party/FreeRTOS/Source/stream_buffer.c **** 		/* Was a task waiting for the data? */
 591:Middlewares/Third_Party/FreeRTOS/Source/stream_buffer.c **** 		if( prvBytesInBuffer( pxStreamBuffer ) >= pxStreamBuffer->xTriggerLevelBytes )
 592:Middlewares/Third_Party/FreeRTOS/Source/stream_buffer.c **** 		{
 593:Middlewares/Third_Party/FreeRTOS/Source/stream_buffer.c **** 			sbSEND_COMPLETED( pxStreamBuffer );
 594:Middlewares/Third_Party/FreeRTOS/Source/stream_buffer.c **** 		}
 595:Middlewares/Third_Party/FreeRTOS/Source/stream_buffer.c **** 		else
 596:Middlewares/Third_Party/FreeRTOS/Source/stream_buffer.c **** 		{
 597:Middlewares/Third_Party/FreeRTOS/Source/stream_buffer.c **** 			mtCOVERAGE_TEST_MARKER();
 598:Middlewares/Third_Party/FreeRTOS/Source/stream_buffer.c **** 		}
 599:Middlewares/Third_Party/FreeRTOS/Source/stream_buffer.c **** 	}
 600:Middlewares/Third_Party/FreeRTOS/Source/stream_buffer.c **** 	else
ARM GAS  /tmp/ccKrWf9C.s 			page 12


 601:Middlewares/Third_Party/FreeRTOS/Source/stream_buffer.c **** 	{
 602:Middlewares/Third_Party/FreeRTOS/Source/stream_buffer.c **** 		mtCOVERAGE_TEST_MARKER();
 603:Middlewares/Third_Party/FreeRTOS/Source/stream_buffer.c **** 		traceSTREAM_BUFFER_SEND_FAILED( xStreamBuffer );
 604:Middlewares/Third_Party/FreeRTOS/Source/stream_buffer.c **** 	}
 605:Middlewares/Third_Party/FreeRTOS/Source/stream_buffer.c **** 
 606:Middlewares/Third_Party/FreeRTOS/Source/stream_buffer.c **** 	return xReturn;
 607:Middlewares/Third_Party/FreeRTOS/Source/stream_buffer.c **** }
 608:Middlewares/Third_Party/FreeRTOS/Source/stream_buffer.c **** /*-----------------------------------------------------------*/
 609:Middlewares/Third_Party/FreeRTOS/Source/stream_buffer.c **** 
 610:Middlewares/Third_Party/FreeRTOS/Source/stream_buffer.c **** size_t xStreamBufferSendFromISR( StreamBufferHandle_t xStreamBuffer,
 611:Middlewares/Third_Party/FreeRTOS/Source/stream_buffer.c **** 								 const void *pvTxData,
 612:Middlewares/Third_Party/FreeRTOS/Source/stream_buffer.c **** 								 size_t xDataLengthBytes,
 613:Middlewares/Third_Party/FreeRTOS/Source/stream_buffer.c **** 								 BaseType_t * const pxHigherPriorityTaskWoken )
 614:Middlewares/Third_Party/FreeRTOS/Source/stream_buffer.c **** {
 615:Middlewares/Third_Party/FreeRTOS/Source/stream_buffer.c **** StreamBuffer_t * const pxStreamBuffer = xStreamBuffer;
 616:Middlewares/Third_Party/FreeRTOS/Source/stream_buffer.c **** size_t xReturn, xSpace;
 617:Middlewares/Third_Party/FreeRTOS/Source/stream_buffer.c **** size_t xRequiredSpace = xDataLengthBytes;
 618:Middlewares/Third_Party/FreeRTOS/Source/stream_buffer.c **** 
 619:Middlewares/Third_Party/FreeRTOS/Source/stream_buffer.c **** 	configASSERT( pvTxData );
 620:Middlewares/Third_Party/FreeRTOS/Source/stream_buffer.c **** 	configASSERT( pxStreamBuffer );
 621:Middlewares/Third_Party/FreeRTOS/Source/stream_buffer.c **** 
 622:Middlewares/Third_Party/FreeRTOS/Source/stream_buffer.c **** 	/* This send function is used to write to both message buffers and stream
 623:Middlewares/Third_Party/FreeRTOS/Source/stream_buffer.c **** 	buffers.  If this is a message buffer then the space needed must be
 624:Middlewares/Third_Party/FreeRTOS/Source/stream_buffer.c **** 	increased by the amount of bytes needed to store the length of the
 625:Middlewares/Third_Party/FreeRTOS/Source/stream_buffer.c **** 	message. */
 626:Middlewares/Third_Party/FreeRTOS/Source/stream_buffer.c **** 	if( ( pxStreamBuffer->ucFlags & sbFLAGS_IS_MESSAGE_BUFFER ) != ( uint8_t ) 0 )
 627:Middlewares/Third_Party/FreeRTOS/Source/stream_buffer.c **** 	{
 628:Middlewares/Third_Party/FreeRTOS/Source/stream_buffer.c **** 		xRequiredSpace += sbBYTES_TO_STORE_MESSAGE_LENGTH;
 629:Middlewares/Third_Party/FreeRTOS/Source/stream_buffer.c **** 	}
 630:Middlewares/Third_Party/FreeRTOS/Source/stream_buffer.c **** 	else
 631:Middlewares/Third_Party/FreeRTOS/Source/stream_buffer.c **** 	{
 632:Middlewares/Third_Party/FreeRTOS/Source/stream_buffer.c **** 		mtCOVERAGE_TEST_MARKER();
 633:Middlewares/Third_Party/FreeRTOS/Source/stream_buffer.c **** 	}
 634:Middlewares/Third_Party/FreeRTOS/Source/stream_buffer.c **** 
 635:Middlewares/Third_Party/FreeRTOS/Source/stream_buffer.c **** 	xSpace = xStreamBufferSpacesAvailable( pxStreamBuffer );
 636:Middlewares/Third_Party/FreeRTOS/Source/stream_buffer.c **** 	xReturn = prvWriteMessageToBuffer( pxStreamBuffer, pvTxData, xDataLengthBytes, xSpace, xRequiredSp
 637:Middlewares/Third_Party/FreeRTOS/Source/stream_buffer.c **** 
 638:Middlewares/Third_Party/FreeRTOS/Source/stream_buffer.c **** 	if( xReturn > ( size_t ) 0 )
 639:Middlewares/Third_Party/FreeRTOS/Source/stream_buffer.c **** 	{
 640:Middlewares/Third_Party/FreeRTOS/Source/stream_buffer.c **** 		/* Was a task waiting for the data? */
 641:Middlewares/Third_Party/FreeRTOS/Source/stream_buffer.c **** 		if( prvBytesInBuffer( pxStreamBuffer ) >= pxStreamBuffer->xTriggerLevelBytes )
 642:Middlewares/Third_Party/FreeRTOS/Source/stream_buffer.c **** 		{
 643:Middlewares/Third_Party/FreeRTOS/Source/stream_buffer.c **** 			sbSEND_COMPLETE_FROM_ISR( pxStreamBuffer, pxHigherPriorityTaskWoken );
 644:Middlewares/Third_Party/FreeRTOS/Source/stream_buffer.c **** 		}
 645:Middlewares/Third_Party/FreeRTOS/Source/stream_buffer.c **** 		else
 646:Middlewares/Third_Party/FreeRTOS/Source/stream_buffer.c **** 		{
 647:Middlewares/Third_Party/FreeRTOS/Source/stream_buffer.c **** 			mtCOVERAGE_TEST_MARKER();
 648:Middlewares/Third_Party/FreeRTOS/Source/stream_buffer.c **** 		}
 649:Middlewares/Third_Party/FreeRTOS/Source/stream_buffer.c **** 	}
 650:Middlewares/Third_Party/FreeRTOS/Source/stream_buffer.c **** 	else
 651:Middlewares/Third_Party/FreeRTOS/Source/stream_buffer.c **** 	{
 652:Middlewares/Third_Party/FreeRTOS/Source/stream_buffer.c **** 		mtCOVERAGE_TEST_MARKER();
 653:Middlewares/Third_Party/FreeRTOS/Source/stream_buffer.c **** 	}
 654:Middlewares/Third_Party/FreeRTOS/Source/stream_buffer.c **** 
 655:Middlewares/Third_Party/FreeRTOS/Source/stream_buffer.c **** 	traceSTREAM_BUFFER_SEND_FROM_ISR( xStreamBuffer, xReturn );
 656:Middlewares/Third_Party/FreeRTOS/Source/stream_buffer.c **** 
 657:Middlewares/Third_Party/FreeRTOS/Source/stream_buffer.c **** 	return xReturn;
ARM GAS  /tmp/ccKrWf9C.s 			page 13


 658:Middlewares/Third_Party/FreeRTOS/Source/stream_buffer.c **** }
 659:Middlewares/Third_Party/FreeRTOS/Source/stream_buffer.c **** /*-----------------------------------------------------------*/
 660:Middlewares/Third_Party/FreeRTOS/Source/stream_buffer.c **** 
 661:Middlewares/Third_Party/FreeRTOS/Source/stream_buffer.c **** static size_t prvWriteMessageToBuffer( StreamBuffer_t * const pxStreamBuffer,
 662:Middlewares/Third_Party/FreeRTOS/Source/stream_buffer.c **** 									   const void * pvTxData,
 663:Middlewares/Third_Party/FreeRTOS/Source/stream_buffer.c **** 									   size_t xDataLengthBytes,
 664:Middlewares/Third_Party/FreeRTOS/Source/stream_buffer.c **** 									   size_t xSpace,
 665:Middlewares/Third_Party/FreeRTOS/Source/stream_buffer.c **** 									   size_t xRequiredSpace )
 666:Middlewares/Third_Party/FreeRTOS/Source/stream_buffer.c **** {
 667:Middlewares/Third_Party/FreeRTOS/Source/stream_buffer.c **** 	BaseType_t xShouldWrite;
 668:Middlewares/Third_Party/FreeRTOS/Source/stream_buffer.c **** 	size_t xReturn;
 669:Middlewares/Third_Party/FreeRTOS/Source/stream_buffer.c **** 
 670:Middlewares/Third_Party/FreeRTOS/Source/stream_buffer.c **** 	if( xSpace == ( size_t ) 0 )
 671:Middlewares/Third_Party/FreeRTOS/Source/stream_buffer.c **** 	{
 672:Middlewares/Third_Party/FreeRTOS/Source/stream_buffer.c **** 		/* Doesn't matter if this is a stream buffer or a message buffer, there
 673:Middlewares/Third_Party/FreeRTOS/Source/stream_buffer.c **** 		is no space to write. */
 674:Middlewares/Third_Party/FreeRTOS/Source/stream_buffer.c **** 		xShouldWrite = pdFALSE;
 675:Middlewares/Third_Party/FreeRTOS/Source/stream_buffer.c **** 	}
 676:Middlewares/Third_Party/FreeRTOS/Source/stream_buffer.c **** 	else if( ( pxStreamBuffer->ucFlags & sbFLAGS_IS_MESSAGE_BUFFER ) == ( uint8_t ) 0 )
 677:Middlewares/Third_Party/FreeRTOS/Source/stream_buffer.c **** 	{
 678:Middlewares/Third_Party/FreeRTOS/Source/stream_buffer.c **** 		/* This is a stream buffer, as opposed to a message buffer, so writing a
 679:Middlewares/Third_Party/FreeRTOS/Source/stream_buffer.c **** 		stream of bytes rather than discrete messages.  Write as many bytes as
 680:Middlewares/Third_Party/FreeRTOS/Source/stream_buffer.c **** 		possible. */
 681:Middlewares/Third_Party/FreeRTOS/Source/stream_buffer.c **** 		xShouldWrite = pdTRUE;
 682:Middlewares/Third_Party/FreeRTOS/Source/stream_buffer.c **** 		xDataLengthBytes = configMIN( xDataLengthBytes, xSpace );
 683:Middlewares/Third_Party/FreeRTOS/Source/stream_buffer.c **** 	}
 684:Middlewares/Third_Party/FreeRTOS/Source/stream_buffer.c **** 	else if( xSpace >= xRequiredSpace )
 685:Middlewares/Third_Party/FreeRTOS/Source/stream_buffer.c **** 	{
 686:Middlewares/Third_Party/FreeRTOS/Source/stream_buffer.c **** 		/* This is a message buffer, as opposed to a stream buffer, and there
 687:Middlewares/Third_Party/FreeRTOS/Source/stream_buffer.c **** 		is enough space to write both the message length and the message itself
 688:Middlewares/Third_Party/FreeRTOS/Source/stream_buffer.c **** 		into the buffer.  Start by writing the length of the data, the data
 689:Middlewares/Third_Party/FreeRTOS/Source/stream_buffer.c **** 		itself will be written later in this function. */
 690:Middlewares/Third_Party/FreeRTOS/Source/stream_buffer.c **** 		xShouldWrite = pdTRUE;
 691:Middlewares/Third_Party/FreeRTOS/Source/stream_buffer.c **** 		( void ) prvWriteBytesToBuffer( pxStreamBuffer, ( const uint8_t * ) &( xDataLengthBytes ), sbBYTE
 692:Middlewares/Third_Party/FreeRTOS/Source/stream_buffer.c **** 	}
 693:Middlewares/Third_Party/FreeRTOS/Source/stream_buffer.c **** 	else
 694:Middlewares/Third_Party/FreeRTOS/Source/stream_buffer.c **** 	{
 695:Middlewares/Third_Party/FreeRTOS/Source/stream_buffer.c **** 		/* There is space available, but not enough space. */
 696:Middlewares/Third_Party/FreeRTOS/Source/stream_buffer.c **** 		xShouldWrite = pdFALSE;
 697:Middlewares/Third_Party/FreeRTOS/Source/stream_buffer.c **** 	}
 698:Middlewares/Third_Party/FreeRTOS/Source/stream_buffer.c **** 
 699:Middlewares/Third_Party/FreeRTOS/Source/stream_buffer.c **** 	if( xShouldWrite != pdFALSE )
 700:Middlewares/Third_Party/FreeRTOS/Source/stream_buffer.c **** 	{
 701:Middlewares/Third_Party/FreeRTOS/Source/stream_buffer.c **** 		/* Writes the data itself. */
 702:Middlewares/Third_Party/FreeRTOS/Source/stream_buffer.c **** 		xReturn = prvWriteBytesToBuffer( pxStreamBuffer, ( const uint8_t * ) pvTxData, xDataLengthBytes )
 703:Middlewares/Third_Party/FreeRTOS/Source/stream_buffer.c **** 	}
 704:Middlewares/Third_Party/FreeRTOS/Source/stream_buffer.c **** 	else
 705:Middlewares/Third_Party/FreeRTOS/Source/stream_buffer.c **** 	{
 706:Middlewares/Third_Party/FreeRTOS/Source/stream_buffer.c **** 		xReturn = 0;
 707:Middlewares/Third_Party/FreeRTOS/Source/stream_buffer.c **** 	}
 708:Middlewares/Third_Party/FreeRTOS/Source/stream_buffer.c **** 
 709:Middlewares/Third_Party/FreeRTOS/Source/stream_buffer.c **** 	return xReturn;
 710:Middlewares/Third_Party/FreeRTOS/Source/stream_buffer.c **** }
 711:Middlewares/Third_Party/FreeRTOS/Source/stream_buffer.c **** /*-----------------------------------------------------------*/
 712:Middlewares/Third_Party/FreeRTOS/Source/stream_buffer.c **** 
 713:Middlewares/Third_Party/FreeRTOS/Source/stream_buffer.c **** size_t xStreamBufferReceive( StreamBufferHandle_t xStreamBuffer,
 714:Middlewares/Third_Party/FreeRTOS/Source/stream_buffer.c **** 							 void *pvRxData,
ARM GAS  /tmp/ccKrWf9C.s 			page 14


 715:Middlewares/Third_Party/FreeRTOS/Source/stream_buffer.c **** 							 size_t xBufferLengthBytes,
 716:Middlewares/Third_Party/FreeRTOS/Source/stream_buffer.c **** 							 TickType_t xTicksToWait )
 717:Middlewares/Third_Party/FreeRTOS/Source/stream_buffer.c **** {
 718:Middlewares/Third_Party/FreeRTOS/Source/stream_buffer.c **** StreamBuffer_t * const pxStreamBuffer = xStreamBuffer;
 719:Middlewares/Third_Party/FreeRTOS/Source/stream_buffer.c **** size_t xReceivedLength = 0, xBytesAvailable, xBytesToStoreMessageLength;
 720:Middlewares/Third_Party/FreeRTOS/Source/stream_buffer.c **** 
 721:Middlewares/Third_Party/FreeRTOS/Source/stream_buffer.c **** 	configASSERT( pvRxData );
 722:Middlewares/Third_Party/FreeRTOS/Source/stream_buffer.c **** 	configASSERT( pxStreamBuffer );
 723:Middlewares/Third_Party/FreeRTOS/Source/stream_buffer.c **** 
 724:Middlewares/Third_Party/FreeRTOS/Source/stream_buffer.c **** 	/* This receive function is used by both message buffers, which store
 725:Middlewares/Third_Party/FreeRTOS/Source/stream_buffer.c **** 	discrete messages, and stream buffers, which store a continuous stream of
 726:Middlewares/Third_Party/FreeRTOS/Source/stream_buffer.c **** 	bytes.  Discrete messages include an additional
 727:Middlewares/Third_Party/FreeRTOS/Source/stream_buffer.c **** 	sbBYTES_TO_STORE_MESSAGE_LENGTH bytes that hold the length of the
 728:Middlewares/Third_Party/FreeRTOS/Source/stream_buffer.c **** 	message. */
 729:Middlewares/Third_Party/FreeRTOS/Source/stream_buffer.c **** 	if( ( pxStreamBuffer->ucFlags & sbFLAGS_IS_MESSAGE_BUFFER ) != ( uint8_t ) 0 )
 730:Middlewares/Third_Party/FreeRTOS/Source/stream_buffer.c **** 	{
 731:Middlewares/Third_Party/FreeRTOS/Source/stream_buffer.c **** 		xBytesToStoreMessageLength = sbBYTES_TO_STORE_MESSAGE_LENGTH;
 732:Middlewares/Third_Party/FreeRTOS/Source/stream_buffer.c **** 	}
 733:Middlewares/Third_Party/FreeRTOS/Source/stream_buffer.c **** 	else
 734:Middlewares/Third_Party/FreeRTOS/Source/stream_buffer.c **** 	{
 735:Middlewares/Third_Party/FreeRTOS/Source/stream_buffer.c **** 		xBytesToStoreMessageLength = 0;
 736:Middlewares/Third_Party/FreeRTOS/Source/stream_buffer.c **** 	}
 737:Middlewares/Third_Party/FreeRTOS/Source/stream_buffer.c **** 
 738:Middlewares/Third_Party/FreeRTOS/Source/stream_buffer.c **** 	if( xTicksToWait != ( TickType_t ) 0 )
 739:Middlewares/Third_Party/FreeRTOS/Source/stream_buffer.c **** 	{
 740:Middlewares/Third_Party/FreeRTOS/Source/stream_buffer.c **** 		/* Checking if there is data and clearing the notification state must be
 741:Middlewares/Third_Party/FreeRTOS/Source/stream_buffer.c **** 		performed atomically. */
 742:Middlewares/Third_Party/FreeRTOS/Source/stream_buffer.c **** 		taskENTER_CRITICAL();
 743:Middlewares/Third_Party/FreeRTOS/Source/stream_buffer.c **** 		{
 744:Middlewares/Third_Party/FreeRTOS/Source/stream_buffer.c **** 			xBytesAvailable = prvBytesInBuffer( pxStreamBuffer );
 745:Middlewares/Third_Party/FreeRTOS/Source/stream_buffer.c **** 
 746:Middlewares/Third_Party/FreeRTOS/Source/stream_buffer.c **** 			/* If this function was invoked by a message buffer read then
 747:Middlewares/Third_Party/FreeRTOS/Source/stream_buffer.c **** 			xBytesToStoreMessageLength holds the number of bytes used to hold
 748:Middlewares/Third_Party/FreeRTOS/Source/stream_buffer.c **** 			the length of the next discrete message.  If this function was
 749:Middlewares/Third_Party/FreeRTOS/Source/stream_buffer.c **** 			invoked by a stream buffer read then xBytesToStoreMessageLength will
 750:Middlewares/Third_Party/FreeRTOS/Source/stream_buffer.c **** 			be 0. */
 751:Middlewares/Third_Party/FreeRTOS/Source/stream_buffer.c **** 			if( xBytesAvailable <= xBytesToStoreMessageLength )
 752:Middlewares/Third_Party/FreeRTOS/Source/stream_buffer.c **** 			{
 753:Middlewares/Third_Party/FreeRTOS/Source/stream_buffer.c **** 				/* Clear notification state as going to wait for data. */
 754:Middlewares/Third_Party/FreeRTOS/Source/stream_buffer.c **** 				( void ) xTaskNotifyStateClear( NULL );
 755:Middlewares/Third_Party/FreeRTOS/Source/stream_buffer.c **** 
 756:Middlewares/Third_Party/FreeRTOS/Source/stream_buffer.c **** 				/* Should only be one reader. */
 757:Middlewares/Third_Party/FreeRTOS/Source/stream_buffer.c **** 				configASSERT( pxStreamBuffer->xTaskWaitingToReceive == NULL );
 758:Middlewares/Third_Party/FreeRTOS/Source/stream_buffer.c **** 				pxStreamBuffer->xTaskWaitingToReceive = xTaskGetCurrentTaskHandle();
 759:Middlewares/Third_Party/FreeRTOS/Source/stream_buffer.c **** 			}
 760:Middlewares/Third_Party/FreeRTOS/Source/stream_buffer.c **** 			else
 761:Middlewares/Third_Party/FreeRTOS/Source/stream_buffer.c **** 			{
 762:Middlewares/Third_Party/FreeRTOS/Source/stream_buffer.c **** 				mtCOVERAGE_TEST_MARKER();
 763:Middlewares/Third_Party/FreeRTOS/Source/stream_buffer.c **** 			}
 764:Middlewares/Third_Party/FreeRTOS/Source/stream_buffer.c **** 		}
 765:Middlewares/Third_Party/FreeRTOS/Source/stream_buffer.c **** 		taskEXIT_CRITICAL();
 766:Middlewares/Third_Party/FreeRTOS/Source/stream_buffer.c **** 
 767:Middlewares/Third_Party/FreeRTOS/Source/stream_buffer.c **** 		if( xBytesAvailable <= xBytesToStoreMessageLength )
 768:Middlewares/Third_Party/FreeRTOS/Source/stream_buffer.c **** 		{
 769:Middlewares/Third_Party/FreeRTOS/Source/stream_buffer.c **** 			/* Wait for data to be available. */
 770:Middlewares/Third_Party/FreeRTOS/Source/stream_buffer.c **** 			traceBLOCKING_ON_STREAM_BUFFER_RECEIVE( xStreamBuffer );
 771:Middlewares/Third_Party/FreeRTOS/Source/stream_buffer.c **** 			( void ) xTaskNotifyWait( ( uint32_t ) 0, ( uint32_t ) 0, NULL, xTicksToWait );
ARM GAS  /tmp/ccKrWf9C.s 			page 15


 772:Middlewares/Third_Party/FreeRTOS/Source/stream_buffer.c **** 			pxStreamBuffer->xTaskWaitingToReceive = NULL;
 773:Middlewares/Third_Party/FreeRTOS/Source/stream_buffer.c **** 
 774:Middlewares/Third_Party/FreeRTOS/Source/stream_buffer.c **** 			/* Recheck the data available after blocking. */
 775:Middlewares/Third_Party/FreeRTOS/Source/stream_buffer.c **** 			xBytesAvailable = prvBytesInBuffer( pxStreamBuffer );
 776:Middlewares/Third_Party/FreeRTOS/Source/stream_buffer.c **** 		}
 777:Middlewares/Third_Party/FreeRTOS/Source/stream_buffer.c **** 		else
 778:Middlewares/Third_Party/FreeRTOS/Source/stream_buffer.c **** 		{
 779:Middlewares/Third_Party/FreeRTOS/Source/stream_buffer.c **** 			mtCOVERAGE_TEST_MARKER();
 780:Middlewares/Third_Party/FreeRTOS/Source/stream_buffer.c **** 		}
 781:Middlewares/Third_Party/FreeRTOS/Source/stream_buffer.c **** 	}
 782:Middlewares/Third_Party/FreeRTOS/Source/stream_buffer.c **** 	else
 783:Middlewares/Third_Party/FreeRTOS/Source/stream_buffer.c **** 	{
 784:Middlewares/Third_Party/FreeRTOS/Source/stream_buffer.c **** 		xBytesAvailable = prvBytesInBuffer( pxStreamBuffer );
 785:Middlewares/Third_Party/FreeRTOS/Source/stream_buffer.c **** 	}
 786:Middlewares/Third_Party/FreeRTOS/Source/stream_buffer.c **** 
 787:Middlewares/Third_Party/FreeRTOS/Source/stream_buffer.c **** 	/* Whether receiving a discrete message (where xBytesToStoreMessageLength
 788:Middlewares/Third_Party/FreeRTOS/Source/stream_buffer.c **** 	holds the number of bytes used to store the message length) or a stream of
 789:Middlewares/Third_Party/FreeRTOS/Source/stream_buffer.c **** 	bytes (where xBytesToStoreMessageLength is zero), the number of bytes
 790:Middlewares/Third_Party/FreeRTOS/Source/stream_buffer.c **** 	available must be greater than xBytesToStoreMessageLength to be able to
 791:Middlewares/Third_Party/FreeRTOS/Source/stream_buffer.c **** 	read bytes from the buffer. */
 792:Middlewares/Third_Party/FreeRTOS/Source/stream_buffer.c **** 	if( xBytesAvailable > xBytesToStoreMessageLength )
 793:Middlewares/Third_Party/FreeRTOS/Source/stream_buffer.c **** 	{
 794:Middlewares/Third_Party/FreeRTOS/Source/stream_buffer.c **** 		xReceivedLength = prvReadMessageFromBuffer( pxStreamBuffer, pvRxData, xBufferLengthBytes, xBytesA
 795:Middlewares/Third_Party/FreeRTOS/Source/stream_buffer.c **** 
 796:Middlewares/Third_Party/FreeRTOS/Source/stream_buffer.c **** 		/* Was a task waiting for space in the buffer? */
 797:Middlewares/Third_Party/FreeRTOS/Source/stream_buffer.c **** 		if( xReceivedLength != ( size_t ) 0 )
 798:Middlewares/Third_Party/FreeRTOS/Source/stream_buffer.c **** 		{
 799:Middlewares/Third_Party/FreeRTOS/Source/stream_buffer.c **** 			traceSTREAM_BUFFER_RECEIVE( xStreamBuffer, xReceivedLength );
 800:Middlewares/Third_Party/FreeRTOS/Source/stream_buffer.c **** 			sbRECEIVE_COMPLETED( pxStreamBuffer );
 801:Middlewares/Third_Party/FreeRTOS/Source/stream_buffer.c **** 		}
 802:Middlewares/Third_Party/FreeRTOS/Source/stream_buffer.c **** 		else
 803:Middlewares/Third_Party/FreeRTOS/Source/stream_buffer.c **** 		{
 804:Middlewares/Third_Party/FreeRTOS/Source/stream_buffer.c **** 			mtCOVERAGE_TEST_MARKER();
 805:Middlewares/Third_Party/FreeRTOS/Source/stream_buffer.c **** 		}
 806:Middlewares/Third_Party/FreeRTOS/Source/stream_buffer.c **** 	}
 807:Middlewares/Third_Party/FreeRTOS/Source/stream_buffer.c **** 	else
 808:Middlewares/Third_Party/FreeRTOS/Source/stream_buffer.c **** 	{
 809:Middlewares/Third_Party/FreeRTOS/Source/stream_buffer.c **** 		traceSTREAM_BUFFER_RECEIVE_FAILED( xStreamBuffer );
 810:Middlewares/Third_Party/FreeRTOS/Source/stream_buffer.c **** 		mtCOVERAGE_TEST_MARKER();
 811:Middlewares/Third_Party/FreeRTOS/Source/stream_buffer.c **** 	}
 812:Middlewares/Third_Party/FreeRTOS/Source/stream_buffer.c **** 
 813:Middlewares/Third_Party/FreeRTOS/Source/stream_buffer.c **** 	return xReceivedLength;
 814:Middlewares/Third_Party/FreeRTOS/Source/stream_buffer.c **** }
 815:Middlewares/Third_Party/FreeRTOS/Source/stream_buffer.c **** /*-----------------------------------------------------------*/
 816:Middlewares/Third_Party/FreeRTOS/Source/stream_buffer.c **** 
 817:Middlewares/Third_Party/FreeRTOS/Source/stream_buffer.c **** size_t xStreamBufferNextMessageLengthBytes( StreamBufferHandle_t xStreamBuffer )
 818:Middlewares/Third_Party/FreeRTOS/Source/stream_buffer.c **** {
 819:Middlewares/Third_Party/FreeRTOS/Source/stream_buffer.c **** StreamBuffer_t * const pxStreamBuffer = xStreamBuffer;
 820:Middlewares/Third_Party/FreeRTOS/Source/stream_buffer.c **** size_t xReturn, xBytesAvailable, xOriginalTail;
 821:Middlewares/Third_Party/FreeRTOS/Source/stream_buffer.c **** configMESSAGE_BUFFER_LENGTH_TYPE xTempReturn;
 822:Middlewares/Third_Party/FreeRTOS/Source/stream_buffer.c **** 
 823:Middlewares/Third_Party/FreeRTOS/Source/stream_buffer.c **** 	configASSERT( pxStreamBuffer );
 824:Middlewares/Third_Party/FreeRTOS/Source/stream_buffer.c **** 
 825:Middlewares/Third_Party/FreeRTOS/Source/stream_buffer.c **** 	/* Ensure the stream buffer is being used as a message buffer. */
 826:Middlewares/Third_Party/FreeRTOS/Source/stream_buffer.c **** 	if( ( pxStreamBuffer->ucFlags & sbFLAGS_IS_MESSAGE_BUFFER ) != ( uint8_t ) 0 )
 827:Middlewares/Third_Party/FreeRTOS/Source/stream_buffer.c **** 	{
 828:Middlewares/Third_Party/FreeRTOS/Source/stream_buffer.c **** 		xBytesAvailable = prvBytesInBuffer( pxStreamBuffer );
ARM GAS  /tmp/ccKrWf9C.s 			page 16


 829:Middlewares/Third_Party/FreeRTOS/Source/stream_buffer.c **** 		if( xBytesAvailable > sbBYTES_TO_STORE_MESSAGE_LENGTH )
 830:Middlewares/Third_Party/FreeRTOS/Source/stream_buffer.c **** 		{
 831:Middlewares/Third_Party/FreeRTOS/Source/stream_buffer.c **** 			/* The number of bytes available is greater than the number of bytes
 832:Middlewares/Third_Party/FreeRTOS/Source/stream_buffer.c **** 			required to hold the length of the next message, so another message
 833:Middlewares/Third_Party/FreeRTOS/Source/stream_buffer.c **** 			is available.  Return its length without removing the length bytes
 834:Middlewares/Third_Party/FreeRTOS/Source/stream_buffer.c **** 			from the buffer.  A copy of the tail is stored so the buffer can be
 835:Middlewares/Third_Party/FreeRTOS/Source/stream_buffer.c **** 			returned to its prior state as the message is not actually being
 836:Middlewares/Third_Party/FreeRTOS/Source/stream_buffer.c **** 			removed from the buffer. */
 837:Middlewares/Third_Party/FreeRTOS/Source/stream_buffer.c **** 			xOriginalTail = pxStreamBuffer->xTail;
 838:Middlewares/Third_Party/FreeRTOS/Source/stream_buffer.c **** 			( void ) prvReadBytesFromBuffer( pxStreamBuffer, ( uint8_t * ) &xTempReturn, sbBYTES_TO_STORE_ME
 839:Middlewares/Third_Party/FreeRTOS/Source/stream_buffer.c **** 			xReturn = ( size_t ) xTempReturn;
 840:Middlewares/Third_Party/FreeRTOS/Source/stream_buffer.c **** 			pxStreamBuffer->xTail = xOriginalTail;
 841:Middlewares/Third_Party/FreeRTOS/Source/stream_buffer.c **** 		}
 842:Middlewares/Third_Party/FreeRTOS/Source/stream_buffer.c **** 		else
 843:Middlewares/Third_Party/FreeRTOS/Source/stream_buffer.c **** 		{
 844:Middlewares/Third_Party/FreeRTOS/Source/stream_buffer.c **** 			/* The minimum amount of bytes in a message buffer is
 845:Middlewares/Third_Party/FreeRTOS/Source/stream_buffer.c **** 			( sbBYTES_TO_STORE_MESSAGE_LENGTH + 1 ), so if xBytesAvailable is
 846:Middlewares/Third_Party/FreeRTOS/Source/stream_buffer.c **** 			less than sbBYTES_TO_STORE_MESSAGE_LENGTH the only other valid
 847:Middlewares/Third_Party/FreeRTOS/Source/stream_buffer.c **** 			value is 0. */
 848:Middlewares/Third_Party/FreeRTOS/Source/stream_buffer.c **** 			configASSERT( xBytesAvailable == 0 );
 849:Middlewares/Third_Party/FreeRTOS/Source/stream_buffer.c **** 			xReturn = 0;
 850:Middlewares/Third_Party/FreeRTOS/Source/stream_buffer.c **** 		}
 851:Middlewares/Third_Party/FreeRTOS/Source/stream_buffer.c **** 	}
 852:Middlewares/Third_Party/FreeRTOS/Source/stream_buffer.c **** 	else
 853:Middlewares/Third_Party/FreeRTOS/Source/stream_buffer.c **** 	{
 854:Middlewares/Third_Party/FreeRTOS/Source/stream_buffer.c **** 		xReturn = 0;
 855:Middlewares/Third_Party/FreeRTOS/Source/stream_buffer.c **** 	}
 856:Middlewares/Third_Party/FreeRTOS/Source/stream_buffer.c **** 
 857:Middlewares/Third_Party/FreeRTOS/Source/stream_buffer.c **** 	return xReturn;
 858:Middlewares/Third_Party/FreeRTOS/Source/stream_buffer.c **** }
 859:Middlewares/Third_Party/FreeRTOS/Source/stream_buffer.c **** /*-----------------------------------------------------------*/
 860:Middlewares/Third_Party/FreeRTOS/Source/stream_buffer.c **** 
 861:Middlewares/Third_Party/FreeRTOS/Source/stream_buffer.c **** size_t xStreamBufferReceiveFromISR( StreamBufferHandle_t xStreamBuffer,
 862:Middlewares/Third_Party/FreeRTOS/Source/stream_buffer.c **** 									void *pvRxData,
 863:Middlewares/Third_Party/FreeRTOS/Source/stream_buffer.c **** 									size_t xBufferLengthBytes,
 864:Middlewares/Third_Party/FreeRTOS/Source/stream_buffer.c **** 									BaseType_t * const pxHigherPriorityTaskWoken )
 865:Middlewares/Third_Party/FreeRTOS/Source/stream_buffer.c **** {
 866:Middlewares/Third_Party/FreeRTOS/Source/stream_buffer.c **** StreamBuffer_t * const pxStreamBuffer = xStreamBuffer;
 867:Middlewares/Third_Party/FreeRTOS/Source/stream_buffer.c **** size_t xReceivedLength = 0, xBytesAvailable, xBytesToStoreMessageLength;
 868:Middlewares/Third_Party/FreeRTOS/Source/stream_buffer.c **** 
 869:Middlewares/Third_Party/FreeRTOS/Source/stream_buffer.c **** 	configASSERT( pvRxData );
 870:Middlewares/Third_Party/FreeRTOS/Source/stream_buffer.c **** 	configASSERT( pxStreamBuffer );
 871:Middlewares/Third_Party/FreeRTOS/Source/stream_buffer.c **** 
 872:Middlewares/Third_Party/FreeRTOS/Source/stream_buffer.c **** 	/* This receive function is used by both message buffers, which store
 873:Middlewares/Third_Party/FreeRTOS/Source/stream_buffer.c **** 	discrete messages, and stream buffers, which store a continuous stream of
 874:Middlewares/Third_Party/FreeRTOS/Source/stream_buffer.c **** 	bytes.  Discrete messages include an additional
 875:Middlewares/Third_Party/FreeRTOS/Source/stream_buffer.c **** 	sbBYTES_TO_STORE_MESSAGE_LENGTH bytes that hold the length of the
 876:Middlewares/Third_Party/FreeRTOS/Source/stream_buffer.c **** 	message. */
 877:Middlewares/Third_Party/FreeRTOS/Source/stream_buffer.c **** 	if( ( pxStreamBuffer->ucFlags & sbFLAGS_IS_MESSAGE_BUFFER ) != ( uint8_t ) 0 )
 878:Middlewares/Third_Party/FreeRTOS/Source/stream_buffer.c **** 	{
 879:Middlewares/Third_Party/FreeRTOS/Source/stream_buffer.c **** 		xBytesToStoreMessageLength = sbBYTES_TO_STORE_MESSAGE_LENGTH;
 880:Middlewares/Third_Party/FreeRTOS/Source/stream_buffer.c **** 	}
 881:Middlewares/Third_Party/FreeRTOS/Source/stream_buffer.c **** 	else
 882:Middlewares/Third_Party/FreeRTOS/Source/stream_buffer.c **** 	{
 883:Middlewares/Third_Party/FreeRTOS/Source/stream_buffer.c **** 		xBytesToStoreMessageLength = 0;
 884:Middlewares/Third_Party/FreeRTOS/Source/stream_buffer.c **** 	}
 885:Middlewares/Third_Party/FreeRTOS/Source/stream_buffer.c **** 
ARM GAS  /tmp/ccKrWf9C.s 			page 17


 886:Middlewares/Third_Party/FreeRTOS/Source/stream_buffer.c **** 	xBytesAvailable = prvBytesInBuffer( pxStreamBuffer );
 887:Middlewares/Third_Party/FreeRTOS/Source/stream_buffer.c **** 
 888:Middlewares/Third_Party/FreeRTOS/Source/stream_buffer.c **** 	/* Whether receiving a discrete message (where xBytesToStoreMessageLength
 889:Middlewares/Third_Party/FreeRTOS/Source/stream_buffer.c **** 	holds the number of bytes used to store the message length) or a stream of
 890:Middlewares/Third_Party/FreeRTOS/Source/stream_buffer.c **** 	bytes (where xBytesToStoreMessageLength is zero), the number of bytes
 891:Middlewares/Third_Party/FreeRTOS/Source/stream_buffer.c **** 	available must be greater than xBytesToStoreMessageLength to be able to
 892:Middlewares/Third_Party/FreeRTOS/Source/stream_buffer.c **** 	read bytes from the buffer. */
 893:Middlewares/Third_Party/FreeRTOS/Source/stream_buffer.c **** 	if( xBytesAvailable > xBytesToStoreMessageLength )
 894:Middlewares/Third_Party/FreeRTOS/Source/stream_buffer.c **** 	{
 895:Middlewares/Third_Party/FreeRTOS/Source/stream_buffer.c **** 		xReceivedLength = prvReadMessageFromBuffer( pxStreamBuffer, pvRxData, xBufferLengthBytes, xBytesA
 896:Middlewares/Third_Party/FreeRTOS/Source/stream_buffer.c **** 
 897:Middlewares/Third_Party/FreeRTOS/Source/stream_buffer.c **** 		/* Was a task waiting for space in the buffer? */
 898:Middlewares/Third_Party/FreeRTOS/Source/stream_buffer.c **** 		if( xReceivedLength != ( size_t ) 0 )
 899:Middlewares/Third_Party/FreeRTOS/Source/stream_buffer.c **** 		{
 900:Middlewares/Third_Party/FreeRTOS/Source/stream_buffer.c **** 			sbRECEIVE_COMPLETED_FROM_ISR( pxStreamBuffer, pxHigherPriorityTaskWoken );
 901:Middlewares/Third_Party/FreeRTOS/Source/stream_buffer.c **** 		}
 902:Middlewares/Third_Party/FreeRTOS/Source/stream_buffer.c **** 		else
 903:Middlewares/Third_Party/FreeRTOS/Source/stream_buffer.c **** 		{
 904:Middlewares/Third_Party/FreeRTOS/Source/stream_buffer.c **** 			mtCOVERAGE_TEST_MARKER();
 905:Middlewares/Third_Party/FreeRTOS/Source/stream_buffer.c **** 		}
 906:Middlewares/Third_Party/FreeRTOS/Source/stream_buffer.c **** 	}
 907:Middlewares/Third_Party/FreeRTOS/Source/stream_buffer.c **** 	else
 908:Middlewares/Third_Party/FreeRTOS/Source/stream_buffer.c **** 	{
 909:Middlewares/Third_Party/FreeRTOS/Source/stream_buffer.c **** 		mtCOVERAGE_TEST_MARKER();
 910:Middlewares/Third_Party/FreeRTOS/Source/stream_buffer.c **** 	}
 911:Middlewares/Third_Party/FreeRTOS/Source/stream_buffer.c **** 
 912:Middlewares/Third_Party/FreeRTOS/Source/stream_buffer.c **** 	traceSTREAM_BUFFER_RECEIVE_FROM_ISR( xStreamBuffer, xReceivedLength );
 913:Middlewares/Third_Party/FreeRTOS/Source/stream_buffer.c **** 
 914:Middlewares/Third_Party/FreeRTOS/Source/stream_buffer.c **** 	return xReceivedLength;
 915:Middlewares/Third_Party/FreeRTOS/Source/stream_buffer.c **** }
 916:Middlewares/Third_Party/FreeRTOS/Source/stream_buffer.c **** /*-----------------------------------------------------------*/
 917:Middlewares/Third_Party/FreeRTOS/Source/stream_buffer.c **** 
 918:Middlewares/Third_Party/FreeRTOS/Source/stream_buffer.c **** static size_t prvReadMessageFromBuffer( StreamBuffer_t *pxStreamBuffer,
 919:Middlewares/Third_Party/FreeRTOS/Source/stream_buffer.c **** 										void *pvRxData,
 920:Middlewares/Third_Party/FreeRTOS/Source/stream_buffer.c **** 										size_t xBufferLengthBytes,
 921:Middlewares/Third_Party/FreeRTOS/Source/stream_buffer.c **** 										size_t xBytesAvailable,
 922:Middlewares/Third_Party/FreeRTOS/Source/stream_buffer.c **** 										size_t xBytesToStoreMessageLength )
 923:Middlewares/Third_Party/FreeRTOS/Source/stream_buffer.c **** {
 924:Middlewares/Third_Party/FreeRTOS/Source/stream_buffer.c **** size_t xOriginalTail, xReceivedLength, xNextMessageLength;
 925:Middlewares/Third_Party/FreeRTOS/Source/stream_buffer.c **** configMESSAGE_BUFFER_LENGTH_TYPE xTempNextMessageLength;
 926:Middlewares/Third_Party/FreeRTOS/Source/stream_buffer.c **** 
 927:Middlewares/Third_Party/FreeRTOS/Source/stream_buffer.c **** 	if( xBytesToStoreMessageLength != ( size_t ) 0 )
 928:Middlewares/Third_Party/FreeRTOS/Source/stream_buffer.c **** 	{
 929:Middlewares/Third_Party/FreeRTOS/Source/stream_buffer.c **** 		/* A discrete message is being received.  First receive the length
 930:Middlewares/Third_Party/FreeRTOS/Source/stream_buffer.c **** 		of the message.  A copy of the tail is stored so the buffer can be
 931:Middlewares/Third_Party/FreeRTOS/Source/stream_buffer.c **** 		returned to its prior state if the length of the message is too
 932:Middlewares/Third_Party/FreeRTOS/Source/stream_buffer.c **** 		large for the provided buffer. */
 933:Middlewares/Third_Party/FreeRTOS/Source/stream_buffer.c **** 		xOriginalTail = pxStreamBuffer->xTail;
 934:Middlewares/Third_Party/FreeRTOS/Source/stream_buffer.c **** 		( void ) prvReadBytesFromBuffer( pxStreamBuffer, ( uint8_t * ) &xTempNextMessageLength, xBytesToS
 935:Middlewares/Third_Party/FreeRTOS/Source/stream_buffer.c **** 		xNextMessageLength = ( size_t ) xTempNextMessageLength;
 936:Middlewares/Third_Party/FreeRTOS/Source/stream_buffer.c **** 
 937:Middlewares/Third_Party/FreeRTOS/Source/stream_buffer.c **** 		/* Reduce the number of bytes available by the number of bytes just
 938:Middlewares/Third_Party/FreeRTOS/Source/stream_buffer.c **** 		read out. */
 939:Middlewares/Third_Party/FreeRTOS/Source/stream_buffer.c **** 		xBytesAvailable -= xBytesToStoreMessageLength;
 940:Middlewares/Third_Party/FreeRTOS/Source/stream_buffer.c **** 
 941:Middlewares/Third_Party/FreeRTOS/Source/stream_buffer.c **** 		/* Check there is enough space in the buffer provided by the
 942:Middlewares/Third_Party/FreeRTOS/Source/stream_buffer.c **** 		user. */
ARM GAS  /tmp/ccKrWf9C.s 			page 18


 943:Middlewares/Third_Party/FreeRTOS/Source/stream_buffer.c **** 		if( xNextMessageLength > xBufferLengthBytes )
 944:Middlewares/Third_Party/FreeRTOS/Source/stream_buffer.c **** 		{
 945:Middlewares/Third_Party/FreeRTOS/Source/stream_buffer.c **** 			/* The user has provided insufficient space to read the message
 946:Middlewares/Third_Party/FreeRTOS/Source/stream_buffer.c **** 			so return the buffer to its previous state (so the length of
 947:Middlewares/Third_Party/FreeRTOS/Source/stream_buffer.c **** 			the message is in the buffer again). */
 948:Middlewares/Third_Party/FreeRTOS/Source/stream_buffer.c **** 			pxStreamBuffer->xTail = xOriginalTail;
 949:Middlewares/Third_Party/FreeRTOS/Source/stream_buffer.c **** 			xNextMessageLength = 0;
 950:Middlewares/Third_Party/FreeRTOS/Source/stream_buffer.c **** 		}
 951:Middlewares/Third_Party/FreeRTOS/Source/stream_buffer.c **** 		else
 952:Middlewares/Third_Party/FreeRTOS/Source/stream_buffer.c **** 		{
 953:Middlewares/Third_Party/FreeRTOS/Source/stream_buffer.c **** 			mtCOVERAGE_TEST_MARKER();
 954:Middlewares/Third_Party/FreeRTOS/Source/stream_buffer.c **** 		}
 955:Middlewares/Third_Party/FreeRTOS/Source/stream_buffer.c **** 	}
 956:Middlewares/Third_Party/FreeRTOS/Source/stream_buffer.c **** 	else
 957:Middlewares/Third_Party/FreeRTOS/Source/stream_buffer.c **** 	{
 958:Middlewares/Third_Party/FreeRTOS/Source/stream_buffer.c **** 		/* A stream of bytes is being received (as opposed to a discrete
 959:Middlewares/Third_Party/FreeRTOS/Source/stream_buffer.c **** 		message), so read as many bytes as possible. */
 960:Middlewares/Third_Party/FreeRTOS/Source/stream_buffer.c **** 		xNextMessageLength = xBufferLengthBytes;
 961:Middlewares/Third_Party/FreeRTOS/Source/stream_buffer.c **** 	}
 962:Middlewares/Third_Party/FreeRTOS/Source/stream_buffer.c **** 
 963:Middlewares/Third_Party/FreeRTOS/Source/stream_buffer.c **** 	/* Read the actual data. */
 964:Middlewares/Third_Party/FreeRTOS/Source/stream_buffer.c **** 	xReceivedLength = prvReadBytesFromBuffer( pxStreamBuffer, ( uint8_t * ) pvRxData, xNextMessageLeng
 965:Middlewares/Third_Party/FreeRTOS/Source/stream_buffer.c **** 
 966:Middlewares/Third_Party/FreeRTOS/Source/stream_buffer.c **** 	return xReceivedLength;
 967:Middlewares/Third_Party/FreeRTOS/Source/stream_buffer.c **** }
 968:Middlewares/Third_Party/FreeRTOS/Source/stream_buffer.c **** /*-----------------------------------------------------------*/
 969:Middlewares/Third_Party/FreeRTOS/Source/stream_buffer.c **** 
 970:Middlewares/Third_Party/FreeRTOS/Source/stream_buffer.c **** BaseType_t xStreamBufferIsEmpty( StreamBufferHandle_t xStreamBuffer )
 971:Middlewares/Third_Party/FreeRTOS/Source/stream_buffer.c **** {
 972:Middlewares/Third_Party/FreeRTOS/Source/stream_buffer.c **** const StreamBuffer_t * const pxStreamBuffer = xStreamBuffer;
 973:Middlewares/Third_Party/FreeRTOS/Source/stream_buffer.c **** BaseType_t xReturn;
 974:Middlewares/Third_Party/FreeRTOS/Source/stream_buffer.c **** size_t xTail;
 975:Middlewares/Third_Party/FreeRTOS/Source/stream_buffer.c **** 
 976:Middlewares/Third_Party/FreeRTOS/Source/stream_buffer.c **** 	configASSERT( pxStreamBuffer );
 977:Middlewares/Third_Party/FreeRTOS/Source/stream_buffer.c **** 
 978:Middlewares/Third_Party/FreeRTOS/Source/stream_buffer.c **** 	/* True if no bytes are available. */
 979:Middlewares/Third_Party/FreeRTOS/Source/stream_buffer.c **** 	xTail = pxStreamBuffer->xTail;
 980:Middlewares/Third_Party/FreeRTOS/Source/stream_buffer.c **** 	if( pxStreamBuffer->xHead == xTail )
 981:Middlewares/Third_Party/FreeRTOS/Source/stream_buffer.c **** 	{
 982:Middlewares/Third_Party/FreeRTOS/Source/stream_buffer.c **** 		xReturn = pdTRUE;
 983:Middlewares/Third_Party/FreeRTOS/Source/stream_buffer.c **** 	}
 984:Middlewares/Third_Party/FreeRTOS/Source/stream_buffer.c **** 	else
 985:Middlewares/Third_Party/FreeRTOS/Source/stream_buffer.c **** 	{
 986:Middlewares/Third_Party/FreeRTOS/Source/stream_buffer.c **** 		xReturn = pdFALSE;
 987:Middlewares/Third_Party/FreeRTOS/Source/stream_buffer.c **** 	}
 988:Middlewares/Third_Party/FreeRTOS/Source/stream_buffer.c **** 
 989:Middlewares/Third_Party/FreeRTOS/Source/stream_buffer.c **** 	return xReturn;
 990:Middlewares/Third_Party/FreeRTOS/Source/stream_buffer.c **** }
 991:Middlewares/Third_Party/FreeRTOS/Source/stream_buffer.c **** /*-----------------------------------------------------------*/
 992:Middlewares/Third_Party/FreeRTOS/Source/stream_buffer.c **** 
 993:Middlewares/Third_Party/FreeRTOS/Source/stream_buffer.c **** BaseType_t xStreamBufferIsFull( StreamBufferHandle_t xStreamBuffer )
 994:Middlewares/Third_Party/FreeRTOS/Source/stream_buffer.c **** {
 995:Middlewares/Third_Party/FreeRTOS/Source/stream_buffer.c **** BaseType_t xReturn;
 996:Middlewares/Third_Party/FreeRTOS/Source/stream_buffer.c **** size_t xBytesToStoreMessageLength;
 997:Middlewares/Third_Party/FreeRTOS/Source/stream_buffer.c **** const StreamBuffer_t * const pxStreamBuffer = xStreamBuffer;
 998:Middlewares/Third_Party/FreeRTOS/Source/stream_buffer.c **** 
 999:Middlewares/Third_Party/FreeRTOS/Source/stream_buffer.c **** 	configASSERT( pxStreamBuffer );
ARM GAS  /tmp/ccKrWf9C.s 			page 19


1000:Middlewares/Third_Party/FreeRTOS/Source/stream_buffer.c **** 
1001:Middlewares/Third_Party/FreeRTOS/Source/stream_buffer.c **** 	/* This generic version of the receive function is used by both message
1002:Middlewares/Third_Party/FreeRTOS/Source/stream_buffer.c **** 	buffers, which store discrete messages, and stream buffers, which store a
1003:Middlewares/Third_Party/FreeRTOS/Source/stream_buffer.c **** 	continuous stream of bytes.  Discrete messages include an additional
1004:Middlewares/Third_Party/FreeRTOS/Source/stream_buffer.c **** 	sbBYTES_TO_STORE_MESSAGE_LENGTH bytes that hold the length of the message. */
1005:Middlewares/Third_Party/FreeRTOS/Source/stream_buffer.c **** 	if( ( pxStreamBuffer->ucFlags & sbFLAGS_IS_MESSAGE_BUFFER ) != ( uint8_t ) 0 )
1006:Middlewares/Third_Party/FreeRTOS/Source/stream_buffer.c **** 	{
1007:Middlewares/Third_Party/FreeRTOS/Source/stream_buffer.c **** 		xBytesToStoreMessageLength = sbBYTES_TO_STORE_MESSAGE_LENGTH;
1008:Middlewares/Third_Party/FreeRTOS/Source/stream_buffer.c **** 	}
1009:Middlewares/Third_Party/FreeRTOS/Source/stream_buffer.c **** 	else
1010:Middlewares/Third_Party/FreeRTOS/Source/stream_buffer.c **** 	{
1011:Middlewares/Third_Party/FreeRTOS/Source/stream_buffer.c **** 		xBytesToStoreMessageLength = 0;
1012:Middlewares/Third_Party/FreeRTOS/Source/stream_buffer.c **** 	}
1013:Middlewares/Third_Party/FreeRTOS/Source/stream_buffer.c **** 
1014:Middlewares/Third_Party/FreeRTOS/Source/stream_buffer.c **** 	/* True if the available space equals zero. */
1015:Middlewares/Third_Party/FreeRTOS/Source/stream_buffer.c **** 	if( xStreamBufferSpacesAvailable( xStreamBuffer ) <= xBytesToStoreMessageLength )
1016:Middlewares/Third_Party/FreeRTOS/Source/stream_buffer.c **** 	{
1017:Middlewares/Third_Party/FreeRTOS/Source/stream_buffer.c **** 		xReturn = pdTRUE;
1018:Middlewares/Third_Party/FreeRTOS/Source/stream_buffer.c **** 	}
1019:Middlewares/Third_Party/FreeRTOS/Source/stream_buffer.c **** 	else
1020:Middlewares/Third_Party/FreeRTOS/Source/stream_buffer.c **** 	{
1021:Middlewares/Third_Party/FreeRTOS/Source/stream_buffer.c **** 		xReturn = pdFALSE;
1022:Middlewares/Third_Party/FreeRTOS/Source/stream_buffer.c **** 	}
1023:Middlewares/Third_Party/FreeRTOS/Source/stream_buffer.c **** 
1024:Middlewares/Third_Party/FreeRTOS/Source/stream_buffer.c **** 	return xReturn;
1025:Middlewares/Third_Party/FreeRTOS/Source/stream_buffer.c **** }
1026:Middlewares/Third_Party/FreeRTOS/Source/stream_buffer.c **** /*-----------------------------------------------------------*/
1027:Middlewares/Third_Party/FreeRTOS/Source/stream_buffer.c **** 
1028:Middlewares/Third_Party/FreeRTOS/Source/stream_buffer.c **** BaseType_t xStreamBufferSendCompletedFromISR( StreamBufferHandle_t xStreamBuffer, BaseType_t *pxHig
1029:Middlewares/Third_Party/FreeRTOS/Source/stream_buffer.c **** {
1030:Middlewares/Third_Party/FreeRTOS/Source/stream_buffer.c **** StreamBuffer_t * const pxStreamBuffer = xStreamBuffer;
1031:Middlewares/Third_Party/FreeRTOS/Source/stream_buffer.c **** BaseType_t xReturn;
1032:Middlewares/Third_Party/FreeRTOS/Source/stream_buffer.c **** UBaseType_t uxSavedInterruptStatus;
1033:Middlewares/Third_Party/FreeRTOS/Source/stream_buffer.c **** 
1034:Middlewares/Third_Party/FreeRTOS/Source/stream_buffer.c **** 	configASSERT( pxStreamBuffer );
1035:Middlewares/Third_Party/FreeRTOS/Source/stream_buffer.c **** 
1036:Middlewares/Third_Party/FreeRTOS/Source/stream_buffer.c **** 	uxSavedInterruptStatus = ( UBaseType_t ) portSET_INTERRUPT_MASK_FROM_ISR();
1037:Middlewares/Third_Party/FreeRTOS/Source/stream_buffer.c **** 	{
1038:Middlewares/Third_Party/FreeRTOS/Source/stream_buffer.c **** 		if( ( pxStreamBuffer )->xTaskWaitingToReceive != NULL )
1039:Middlewares/Third_Party/FreeRTOS/Source/stream_buffer.c **** 		{
1040:Middlewares/Third_Party/FreeRTOS/Source/stream_buffer.c **** 			( void ) xTaskNotifyFromISR( ( pxStreamBuffer )->xTaskWaitingToReceive,
1041:Middlewares/Third_Party/FreeRTOS/Source/stream_buffer.c **** 										 ( uint32_t ) 0,
1042:Middlewares/Third_Party/FreeRTOS/Source/stream_buffer.c **** 										 eNoAction,
1043:Middlewares/Third_Party/FreeRTOS/Source/stream_buffer.c **** 										 pxHigherPriorityTaskWoken );
1044:Middlewares/Third_Party/FreeRTOS/Source/stream_buffer.c **** 			( pxStreamBuffer )->xTaskWaitingToReceive = NULL;
1045:Middlewares/Third_Party/FreeRTOS/Source/stream_buffer.c **** 			xReturn = pdTRUE;
1046:Middlewares/Third_Party/FreeRTOS/Source/stream_buffer.c **** 		}
1047:Middlewares/Third_Party/FreeRTOS/Source/stream_buffer.c **** 		else
1048:Middlewares/Third_Party/FreeRTOS/Source/stream_buffer.c **** 		{
1049:Middlewares/Third_Party/FreeRTOS/Source/stream_buffer.c **** 			xReturn = pdFALSE;
1050:Middlewares/Third_Party/FreeRTOS/Source/stream_buffer.c **** 		}
1051:Middlewares/Third_Party/FreeRTOS/Source/stream_buffer.c **** 	}
1052:Middlewares/Third_Party/FreeRTOS/Source/stream_buffer.c **** 	portCLEAR_INTERRUPT_MASK_FROM_ISR( uxSavedInterruptStatus );
1053:Middlewares/Third_Party/FreeRTOS/Source/stream_buffer.c **** 
1054:Middlewares/Third_Party/FreeRTOS/Source/stream_buffer.c **** 	return xReturn;
1055:Middlewares/Third_Party/FreeRTOS/Source/stream_buffer.c **** }
1056:Middlewares/Third_Party/FreeRTOS/Source/stream_buffer.c **** /*-----------------------------------------------------------*/
ARM GAS  /tmp/ccKrWf9C.s 			page 20


1057:Middlewares/Third_Party/FreeRTOS/Source/stream_buffer.c **** 
1058:Middlewares/Third_Party/FreeRTOS/Source/stream_buffer.c **** BaseType_t xStreamBufferReceiveCompletedFromISR( StreamBufferHandle_t xStreamBuffer, BaseType_t *px
1059:Middlewares/Third_Party/FreeRTOS/Source/stream_buffer.c **** {
1060:Middlewares/Third_Party/FreeRTOS/Source/stream_buffer.c **** StreamBuffer_t * const pxStreamBuffer = xStreamBuffer;
1061:Middlewares/Third_Party/FreeRTOS/Source/stream_buffer.c **** BaseType_t xReturn;
1062:Middlewares/Third_Party/FreeRTOS/Source/stream_buffer.c **** UBaseType_t uxSavedInterruptStatus;
1063:Middlewares/Third_Party/FreeRTOS/Source/stream_buffer.c **** 
1064:Middlewares/Third_Party/FreeRTOS/Source/stream_buffer.c **** 	configASSERT( pxStreamBuffer );
1065:Middlewares/Third_Party/FreeRTOS/Source/stream_buffer.c **** 
1066:Middlewares/Third_Party/FreeRTOS/Source/stream_buffer.c **** 	uxSavedInterruptStatus = ( UBaseType_t ) portSET_INTERRUPT_MASK_FROM_ISR();
1067:Middlewares/Third_Party/FreeRTOS/Source/stream_buffer.c **** 	{
1068:Middlewares/Third_Party/FreeRTOS/Source/stream_buffer.c **** 		if( ( pxStreamBuffer )->xTaskWaitingToSend != NULL )
1069:Middlewares/Third_Party/FreeRTOS/Source/stream_buffer.c **** 		{
1070:Middlewares/Third_Party/FreeRTOS/Source/stream_buffer.c **** 			( void ) xTaskNotifyFromISR( ( pxStreamBuffer )->xTaskWaitingToSend,
1071:Middlewares/Third_Party/FreeRTOS/Source/stream_buffer.c **** 										 ( uint32_t ) 0,
1072:Middlewares/Third_Party/FreeRTOS/Source/stream_buffer.c **** 										 eNoAction,
1073:Middlewares/Third_Party/FreeRTOS/Source/stream_buffer.c **** 										 pxHigherPriorityTaskWoken );
1074:Middlewares/Third_Party/FreeRTOS/Source/stream_buffer.c **** 			( pxStreamBuffer )->xTaskWaitingToSend = NULL;
1075:Middlewares/Third_Party/FreeRTOS/Source/stream_buffer.c **** 			xReturn = pdTRUE;
1076:Middlewares/Third_Party/FreeRTOS/Source/stream_buffer.c **** 		}
1077:Middlewares/Third_Party/FreeRTOS/Source/stream_buffer.c **** 		else
1078:Middlewares/Third_Party/FreeRTOS/Source/stream_buffer.c **** 		{
1079:Middlewares/Third_Party/FreeRTOS/Source/stream_buffer.c **** 			xReturn = pdFALSE;
1080:Middlewares/Third_Party/FreeRTOS/Source/stream_buffer.c **** 		}
1081:Middlewares/Third_Party/FreeRTOS/Source/stream_buffer.c **** 	}
1082:Middlewares/Third_Party/FreeRTOS/Source/stream_buffer.c **** 	portCLEAR_INTERRUPT_MASK_FROM_ISR( uxSavedInterruptStatus );
1083:Middlewares/Third_Party/FreeRTOS/Source/stream_buffer.c **** 
1084:Middlewares/Third_Party/FreeRTOS/Source/stream_buffer.c **** 	return xReturn;
1085:Middlewares/Third_Party/FreeRTOS/Source/stream_buffer.c **** }
1086:Middlewares/Third_Party/FreeRTOS/Source/stream_buffer.c **** /*-----------------------------------------------------------*/
1087:Middlewares/Third_Party/FreeRTOS/Source/stream_buffer.c **** 
1088:Middlewares/Third_Party/FreeRTOS/Source/stream_buffer.c **** static size_t prvWriteBytesToBuffer( StreamBuffer_t * const pxStreamBuffer, const uint8_t *pucData,
1089:Middlewares/Third_Party/FreeRTOS/Source/stream_buffer.c **** {
1090:Middlewares/Third_Party/FreeRTOS/Source/stream_buffer.c **** size_t xNextHead, xFirstLength;
1091:Middlewares/Third_Party/FreeRTOS/Source/stream_buffer.c **** 
1092:Middlewares/Third_Party/FreeRTOS/Source/stream_buffer.c **** 	configASSERT( xCount > ( size_t ) 0 );
1093:Middlewares/Third_Party/FreeRTOS/Source/stream_buffer.c **** 
1094:Middlewares/Third_Party/FreeRTOS/Source/stream_buffer.c **** 	xNextHead = pxStreamBuffer->xHead;
1095:Middlewares/Third_Party/FreeRTOS/Source/stream_buffer.c **** 
1096:Middlewares/Third_Party/FreeRTOS/Source/stream_buffer.c **** 	/* Calculate the number of bytes that can be added in the first write -
1097:Middlewares/Third_Party/FreeRTOS/Source/stream_buffer.c **** 	which may be less than the total number of bytes that need to be added if
1098:Middlewares/Third_Party/FreeRTOS/Source/stream_buffer.c **** 	the buffer will wrap back to the beginning. */
1099:Middlewares/Third_Party/FreeRTOS/Source/stream_buffer.c **** 	xFirstLength = configMIN( pxStreamBuffer->xLength - xNextHead, xCount );
1100:Middlewares/Third_Party/FreeRTOS/Source/stream_buffer.c **** 
1101:Middlewares/Third_Party/FreeRTOS/Source/stream_buffer.c **** 	/* Write as many bytes as can be written in the first write. */
1102:Middlewares/Third_Party/FreeRTOS/Source/stream_buffer.c **** 	configASSERT( ( xNextHead + xFirstLength ) <= pxStreamBuffer->xLength );
1103:Middlewares/Third_Party/FreeRTOS/Source/stream_buffer.c **** 	( void ) memcpy( ( void* ) ( &( pxStreamBuffer->pucBuffer[ xNextHead ] ) ), ( const void * ) pucDa
1104:Middlewares/Third_Party/FreeRTOS/Source/stream_buffer.c **** 
1105:Middlewares/Third_Party/FreeRTOS/Source/stream_buffer.c **** 	/* If the number of bytes written was less than the number that could be
1106:Middlewares/Third_Party/FreeRTOS/Source/stream_buffer.c **** 	written in the first write... */
1107:Middlewares/Third_Party/FreeRTOS/Source/stream_buffer.c **** 	if( xCount > xFirstLength )
1108:Middlewares/Third_Party/FreeRTOS/Source/stream_buffer.c **** 	{
1109:Middlewares/Third_Party/FreeRTOS/Source/stream_buffer.c **** 		/* ...then write the remaining bytes to the start of the buffer. */
1110:Middlewares/Third_Party/FreeRTOS/Source/stream_buffer.c **** 		configASSERT( ( xCount - xFirstLength ) <= pxStreamBuffer->xLength );
1111:Middlewares/Third_Party/FreeRTOS/Source/stream_buffer.c **** 		( void ) memcpy( ( void * ) pxStreamBuffer->pucBuffer, ( const void * ) &( pucData[ xFirstLength 
1112:Middlewares/Third_Party/FreeRTOS/Source/stream_buffer.c **** 	}
1113:Middlewares/Third_Party/FreeRTOS/Source/stream_buffer.c **** 	else
ARM GAS  /tmp/ccKrWf9C.s 			page 21


1114:Middlewares/Third_Party/FreeRTOS/Source/stream_buffer.c **** 	{
1115:Middlewares/Third_Party/FreeRTOS/Source/stream_buffer.c **** 		mtCOVERAGE_TEST_MARKER();
1116:Middlewares/Third_Party/FreeRTOS/Source/stream_buffer.c **** 	}
1117:Middlewares/Third_Party/FreeRTOS/Source/stream_buffer.c **** 
1118:Middlewares/Third_Party/FreeRTOS/Source/stream_buffer.c **** 	xNextHead += xCount;
1119:Middlewares/Third_Party/FreeRTOS/Source/stream_buffer.c **** 	if( xNextHead >= pxStreamBuffer->xLength )
1120:Middlewares/Third_Party/FreeRTOS/Source/stream_buffer.c **** 	{
1121:Middlewares/Third_Party/FreeRTOS/Source/stream_buffer.c **** 		xNextHead -= pxStreamBuffer->xLength;
1122:Middlewares/Third_Party/FreeRTOS/Source/stream_buffer.c **** 	}
1123:Middlewares/Third_Party/FreeRTOS/Source/stream_buffer.c **** 	else
1124:Middlewares/Third_Party/FreeRTOS/Source/stream_buffer.c **** 	{
1125:Middlewares/Third_Party/FreeRTOS/Source/stream_buffer.c **** 		mtCOVERAGE_TEST_MARKER();
1126:Middlewares/Third_Party/FreeRTOS/Source/stream_buffer.c **** 	}
1127:Middlewares/Third_Party/FreeRTOS/Source/stream_buffer.c **** 
1128:Middlewares/Third_Party/FreeRTOS/Source/stream_buffer.c **** 	pxStreamBuffer->xHead = xNextHead;
1129:Middlewares/Third_Party/FreeRTOS/Source/stream_buffer.c **** 
1130:Middlewares/Third_Party/FreeRTOS/Source/stream_buffer.c **** 	return xCount;
1131:Middlewares/Third_Party/FreeRTOS/Source/stream_buffer.c **** }
1132:Middlewares/Third_Party/FreeRTOS/Source/stream_buffer.c **** /*-----------------------------------------------------------*/
1133:Middlewares/Third_Party/FreeRTOS/Source/stream_buffer.c **** 
1134:Middlewares/Third_Party/FreeRTOS/Source/stream_buffer.c **** static size_t prvReadBytesFromBuffer( StreamBuffer_t *pxStreamBuffer, uint8_t *pucData, size_t xMax
1135:Middlewares/Third_Party/FreeRTOS/Source/stream_buffer.c **** {
1136:Middlewares/Third_Party/FreeRTOS/Source/stream_buffer.c **** size_t xCount, xFirstLength, xNextTail;
1137:Middlewares/Third_Party/FreeRTOS/Source/stream_buffer.c **** 
1138:Middlewares/Third_Party/FreeRTOS/Source/stream_buffer.c **** 	/* Use the minimum of the wanted bytes and the available bytes. */
1139:Middlewares/Third_Party/FreeRTOS/Source/stream_buffer.c **** 	xCount = configMIN( xBytesAvailable, xMaxCount );
1140:Middlewares/Third_Party/FreeRTOS/Source/stream_buffer.c **** 
1141:Middlewares/Third_Party/FreeRTOS/Source/stream_buffer.c **** 	if( xCount > ( size_t ) 0 )
1142:Middlewares/Third_Party/FreeRTOS/Source/stream_buffer.c **** 	{
1143:Middlewares/Third_Party/FreeRTOS/Source/stream_buffer.c **** 		xNextTail = pxStreamBuffer->xTail;
1144:Middlewares/Third_Party/FreeRTOS/Source/stream_buffer.c **** 
1145:Middlewares/Third_Party/FreeRTOS/Source/stream_buffer.c **** 		/* Calculate the number of bytes that can be read - which may be
1146:Middlewares/Third_Party/FreeRTOS/Source/stream_buffer.c **** 		less than the number wanted if the data wraps around to the start of
1147:Middlewares/Third_Party/FreeRTOS/Source/stream_buffer.c **** 		the buffer. */
1148:Middlewares/Third_Party/FreeRTOS/Source/stream_buffer.c **** 		xFirstLength = configMIN( pxStreamBuffer->xLength - xNextTail, xCount );
1149:Middlewares/Third_Party/FreeRTOS/Source/stream_buffer.c **** 
1150:Middlewares/Third_Party/FreeRTOS/Source/stream_buffer.c **** 		/* Obtain the number of bytes it is possible to obtain in the first
1151:Middlewares/Third_Party/FreeRTOS/Source/stream_buffer.c **** 		read.  Asserts check bounds of read and write. */
1152:Middlewares/Third_Party/FreeRTOS/Source/stream_buffer.c **** 		configASSERT( xFirstLength <= xMaxCount );
1153:Middlewares/Third_Party/FreeRTOS/Source/stream_buffer.c **** 		configASSERT( ( xNextTail + xFirstLength ) <= pxStreamBuffer->xLength );
1154:Middlewares/Third_Party/FreeRTOS/Source/stream_buffer.c **** 		( void ) memcpy( ( void * ) pucData, ( const void * ) &( pxStreamBuffer->pucBuffer[ xNextTail ] )
1155:Middlewares/Third_Party/FreeRTOS/Source/stream_buffer.c **** 
1156:Middlewares/Third_Party/FreeRTOS/Source/stream_buffer.c **** 		/* If the total number of wanted bytes is greater than the number
1157:Middlewares/Third_Party/FreeRTOS/Source/stream_buffer.c **** 		that could be read in the first read... */
1158:Middlewares/Third_Party/FreeRTOS/Source/stream_buffer.c **** 		if( xCount > xFirstLength )
1159:Middlewares/Third_Party/FreeRTOS/Source/stream_buffer.c **** 		{
1160:Middlewares/Third_Party/FreeRTOS/Source/stream_buffer.c **** 			/*...then read the remaining bytes from the start of the buffer. */
1161:Middlewares/Third_Party/FreeRTOS/Source/stream_buffer.c **** 			configASSERT( xCount <= xMaxCount );
1162:Middlewares/Third_Party/FreeRTOS/Source/stream_buffer.c **** 			( void ) memcpy( ( void * ) &( pucData[ xFirstLength ] ), ( void * ) ( pxStreamBuffer->pucBuffer
1163:Middlewares/Third_Party/FreeRTOS/Source/stream_buffer.c **** 		}
1164:Middlewares/Third_Party/FreeRTOS/Source/stream_buffer.c **** 		else
1165:Middlewares/Third_Party/FreeRTOS/Source/stream_buffer.c **** 		{
1166:Middlewares/Third_Party/FreeRTOS/Source/stream_buffer.c **** 			mtCOVERAGE_TEST_MARKER();
1167:Middlewares/Third_Party/FreeRTOS/Source/stream_buffer.c **** 		}
1168:Middlewares/Third_Party/FreeRTOS/Source/stream_buffer.c **** 
1169:Middlewares/Third_Party/FreeRTOS/Source/stream_buffer.c **** 		/* Move the tail pointer to effectively remove the data read from
1170:Middlewares/Third_Party/FreeRTOS/Source/stream_buffer.c **** 		the buffer. */
ARM GAS  /tmp/ccKrWf9C.s 			page 22


1171:Middlewares/Third_Party/FreeRTOS/Source/stream_buffer.c **** 		xNextTail += xCount;
1172:Middlewares/Third_Party/FreeRTOS/Source/stream_buffer.c **** 
1173:Middlewares/Third_Party/FreeRTOS/Source/stream_buffer.c **** 		if( xNextTail >= pxStreamBuffer->xLength )
1174:Middlewares/Third_Party/FreeRTOS/Source/stream_buffer.c **** 		{
1175:Middlewares/Third_Party/FreeRTOS/Source/stream_buffer.c **** 			xNextTail -= pxStreamBuffer->xLength;
1176:Middlewares/Third_Party/FreeRTOS/Source/stream_buffer.c **** 		}
1177:Middlewares/Third_Party/FreeRTOS/Source/stream_buffer.c **** 
1178:Middlewares/Third_Party/FreeRTOS/Source/stream_buffer.c **** 		pxStreamBuffer->xTail = xNextTail;
1179:Middlewares/Third_Party/FreeRTOS/Source/stream_buffer.c **** 	}
1180:Middlewares/Third_Party/FreeRTOS/Source/stream_buffer.c **** 	else
1181:Middlewares/Third_Party/FreeRTOS/Source/stream_buffer.c **** 	{
1182:Middlewares/Third_Party/FreeRTOS/Source/stream_buffer.c **** 		mtCOVERAGE_TEST_MARKER();
1183:Middlewares/Third_Party/FreeRTOS/Source/stream_buffer.c **** 	}
1184:Middlewares/Third_Party/FreeRTOS/Source/stream_buffer.c **** 
1185:Middlewares/Third_Party/FreeRTOS/Source/stream_buffer.c **** 	return xCount;
1186:Middlewares/Third_Party/FreeRTOS/Source/stream_buffer.c **** }
1187:Middlewares/Third_Party/FreeRTOS/Source/stream_buffer.c **** /*-----------------------------------------------------------*/
1188:Middlewares/Third_Party/FreeRTOS/Source/stream_buffer.c **** 
1189:Middlewares/Third_Party/FreeRTOS/Source/stream_buffer.c **** static size_t prvBytesInBuffer( const StreamBuffer_t * const pxStreamBuffer )
1190:Middlewares/Third_Party/FreeRTOS/Source/stream_buffer.c **** {
  29              		.loc 1 1190 0
  30              		.cfi_startproc
  31              		@ args = 0, pretend = 0, frame = 0
  32              		@ frame_needed = 0, uses_anonymous_args = 0
  33              		@ link register save eliminated.
  34              	.LVL0:
1191:Middlewares/Third_Party/FreeRTOS/Source/stream_buffer.c **** /* Returns the distance between xTail and xHead. */
1192:Middlewares/Third_Party/FreeRTOS/Source/stream_buffer.c **** size_t xCount;
1193:Middlewares/Third_Party/FreeRTOS/Source/stream_buffer.c **** 
1194:Middlewares/Third_Party/FreeRTOS/Source/stream_buffer.c **** 	xCount = pxStreamBuffer->xLength + pxStreamBuffer->xHead;
  35              		.loc 1 1194 0
  36 0000 8268     		ldr	r2, [r0, #8]
  37 0002 4368     		ldr	r3, [r0, #4]
  38 0004 1344     		add	r3, r3, r2
  39              	.LVL1:
1195:Middlewares/Third_Party/FreeRTOS/Source/stream_buffer.c **** 	xCount -= pxStreamBuffer->xTail;
  40              		.loc 1 1195 0
  41 0006 0068     		ldr	r0, [r0]
  42              	.LVL2:
  43 0008 181A     		subs	r0, r3, r0
  44              	.LVL3:
1196:Middlewares/Third_Party/FreeRTOS/Source/stream_buffer.c **** 	if ( xCount >= pxStreamBuffer->xLength )
  45              		.loc 1 1196 0
  46 000a 8242     		cmp	r2, r0
  47 000c 00D8     		bhi	.L2
1197:Middlewares/Third_Party/FreeRTOS/Source/stream_buffer.c **** 	{
1198:Middlewares/Third_Party/FreeRTOS/Source/stream_buffer.c **** 		xCount -= pxStreamBuffer->xLength;
  48              		.loc 1 1198 0
  49 000e 801A     		subs	r0, r0, r2
  50              	.LVL4:
  51              	.L2:
1199:Middlewares/Third_Party/FreeRTOS/Source/stream_buffer.c **** 	}
1200:Middlewares/Third_Party/FreeRTOS/Source/stream_buffer.c **** 	else
1201:Middlewares/Third_Party/FreeRTOS/Source/stream_buffer.c **** 	{
1202:Middlewares/Third_Party/FreeRTOS/Source/stream_buffer.c **** 		mtCOVERAGE_TEST_MARKER();
1203:Middlewares/Third_Party/FreeRTOS/Source/stream_buffer.c **** 	}
1204:Middlewares/Third_Party/FreeRTOS/Source/stream_buffer.c **** 
ARM GAS  /tmp/ccKrWf9C.s 			page 23


1205:Middlewares/Third_Party/FreeRTOS/Source/stream_buffer.c **** 	return xCount;
1206:Middlewares/Third_Party/FreeRTOS/Source/stream_buffer.c **** }
  52              		.loc 1 1206 0
  53 0010 7047     		bx	lr
  54              		.cfi_endproc
  55              	.LFE24:
  57 0012 00BF     		.section	.text.prvInitialiseNewStreamBuffer,"ax",%progbits
  58              		.align	2
  59              		.thumb
  60              		.thumb_func
  62              	prvInitialiseNewStreamBuffer:
  63              	.LFB25:
1207:Middlewares/Third_Party/FreeRTOS/Source/stream_buffer.c **** /*-----------------------------------------------------------*/
1208:Middlewares/Third_Party/FreeRTOS/Source/stream_buffer.c **** 
1209:Middlewares/Third_Party/FreeRTOS/Source/stream_buffer.c **** static void prvInitialiseNewStreamBuffer( StreamBuffer_t * const pxStreamBuffer,
1210:Middlewares/Third_Party/FreeRTOS/Source/stream_buffer.c **** 										  uint8_t * const pucBuffer,
1211:Middlewares/Third_Party/FreeRTOS/Source/stream_buffer.c **** 										  size_t xBufferSizeBytes,
1212:Middlewares/Third_Party/FreeRTOS/Source/stream_buffer.c **** 										  size_t xTriggerLevelBytes,
1213:Middlewares/Third_Party/FreeRTOS/Source/stream_buffer.c **** 										  uint8_t ucFlags )
1214:Middlewares/Third_Party/FreeRTOS/Source/stream_buffer.c **** {
  64              		.loc 1 1214 0
  65              		.cfi_startproc
  66              		@ args = 4, pretend = 0, frame = 0
  67              		@ frame_needed = 0, uses_anonymous_args = 0
  68              	.LVL5:
  69 0000 F8B5     		push	{r3, r4, r5, r6, r7, lr}
  70              	.LCFI0:
  71              		.cfi_def_cfa_offset 24
  72              		.cfi_offset 3, -24
  73              		.cfi_offset 4, -20
  74              		.cfi_offset 5, -16
  75              		.cfi_offset 6, -12
  76              		.cfi_offset 7, -8
  77              		.cfi_offset 14, -4
  78 0002 0446     		mov	r4, r0
  79 0004 0D46     		mov	r5, r1
  80 0006 1746     		mov	r7, r2
  81 0008 1E46     		mov	r6, r3
  82              	.LVL6:
  83              	.LBB96:
1215:Middlewares/Third_Party/FreeRTOS/Source/stream_buffer.c **** 	/* Assert here is deliberately writing to the entire buffer to ensure it can
1216:Middlewares/Third_Party/FreeRTOS/Source/stream_buffer.c **** 	be written to without generating exceptions, and is setting the buffer to a
1217:Middlewares/Third_Party/FreeRTOS/Source/stream_buffer.c **** 	known value to assist in development/debugging. */
1218:Middlewares/Third_Party/FreeRTOS/Source/stream_buffer.c **** 	#if( configASSERT_DEFINED == 1 )
1219:Middlewares/Third_Party/FreeRTOS/Source/stream_buffer.c **** 	{
1220:Middlewares/Third_Party/FreeRTOS/Source/stream_buffer.c **** 		/* The value written just has to be identifiable when looking at the
1221:Middlewares/Third_Party/FreeRTOS/Source/stream_buffer.c **** 		memory.  Don't use 0xA5 as that is the stack fill value and could
1222:Middlewares/Third_Party/FreeRTOS/Source/stream_buffer.c **** 		result in confusion as to what is actually being observed. */
1223:Middlewares/Third_Party/FreeRTOS/Source/stream_buffer.c **** 		const BaseType_t xWriteValue = 0x55;
1224:Middlewares/Third_Party/FreeRTOS/Source/stream_buffer.c **** 		configASSERT( memset( pucBuffer, ( int ) xWriteValue, xBufferSizeBytes ) == pucBuffer );
  84              		.loc 1 1224 0
  85 000a 5521     		movs	r1, #85
  86              	.LVL7:
  87 000c 2846     		mov	r0, r5
  88              	.LVL8:
  89 000e FFF7FEFF 		bl	memset
  90              	.LVL9:
ARM GAS  /tmp/ccKrWf9C.s 			page 24


  91 0012 8542     		cmp	r5, r0
  92 0014 08D0     		beq	.L4
  93              	.LBB97:
  94              	.LBB98:
  95              		.file 2 "Middlewares/Third_Party/FreeRTOS/Source/portable/GCC/ARM_CM4F/portmacro.h"
   1:Middlewares/Third_Party/FreeRTOS/Source/portable/GCC/ARM_CM4F/portmacro.h **** /*
   2:Middlewares/Third_Party/FreeRTOS/Source/portable/GCC/ARM_CM4F/portmacro.h ****  * FreeRTOS Kernel V10.3.1
   3:Middlewares/Third_Party/FreeRTOS/Source/portable/GCC/ARM_CM4F/portmacro.h ****  * Copyright (C) 2020 Amazon.com, Inc. or its affiliates.  All Rights Reserved.
   4:Middlewares/Third_Party/FreeRTOS/Source/portable/GCC/ARM_CM4F/portmacro.h ****  *
   5:Middlewares/Third_Party/FreeRTOS/Source/portable/GCC/ARM_CM4F/portmacro.h ****  * Permission is hereby granted, free of charge, to any person obtaining a copy of
   6:Middlewares/Third_Party/FreeRTOS/Source/portable/GCC/ARM_CM4F/portmacro.h ****  * this software and associated documentation files (the "Software"), to deal in
   7:Middlewares/Third_Party/FreeRTOS/Source/portable/GCC/ARM_CM4F/portmacro.h ****  * the Software without restriction, including without limitation the rights to
   8:Middlewares/Third_Party/FreeRTOS/Source/portable/GCC/ARM_CM4F/portmacro.h ****  * use, copy, modify, merge, publish, distribute, sublicense, and/or sell copies of
   9:Middlewares/Third_Party/FreeRTOS/Source/portable/GCC/ARM_CM4F/portmacro.h ****  * the Software, and to permit persons to whom the Software is furnished to do so,
  10:Middlewares/Third_Party/FreeRTOS/Source/portable/GCC/ARM_CM4F/portmacro.h ****  * subject to the following conditions:
  11:Middlewares/Third_Party/FreeRTOS/Source/portable/GCC/ARM_CM4F/portmacro.h ****  *
  12:Middlewares/Third_Party/FreeRTOS/Source/portable/GCC/ARM_CM4F/portmacro.h ****  * The above copyright notice and this permission notice shall be included in all
  13:Middlewares/Third_Party/FreeRTOS/Source/portable/GCC/ARM_CM4F/portmacro.h ****  * copies or substantial portions of the Software.
  14:Middlewares/Third_Party/FreeRTOS/Source/portable/GCC/ARM_CM4F/portmacro.h ****  *
  15:Middlewares/Third_Party/FreeRTOS/Source/portable/GCC/ARM_CM4F/portmacro.h ****  * THE SOFTWARE IS PROVIDED "AS IS", WITHOUT WARRANTY OF ANY KIND, EXPRESS OR
  16:Middlewares/Third_Party/FreeRTOS/Source/portable/GCC/ARM_CM4F/portmacro.h ****  * IMPLIED, INCLUDING BUT NOT LIMITED TO THE WARRANTIES OF MERCHANTABILITY, FITNESS
  17:Middlewares/Third_Party/FreeRTOS/Source/portable/GCC/ARM_CM4F/portmacro.h ****  * FOR A PARTICULAR PURPOSE AND NONINFRINGEMENT. IN NO EVENT SHALL THE AUTHORS OR
  18:Middlewares/Third_Party/FreeRTOS/Source/portable/GCC/ARM_CM4F/portmacro.h ****  * COPYRIGHT HOLDERS BE LIABLE FOR ANY CLAIM, DAMAGES OR OTHER LIABILITY, WHETHER
  19:Middlewares/Third_Party/FreeRTOS/Source/portable/GCC/ARM_CM4F/portmacro.h ****  * IN AN ACTION OF CONTRACT, TORT OR OTHERWISE, ARISING FROM, OUT OF OR IN
  20:Middlewares/Third_Party/FreeRTOS/Source/portable/GCC/ARM_CM4F/portmacro.h ****  * CONNECTION WITH THE SOFTWARE OR THE USE OR OTHER DEALINGS IN THE SOFTWARE.
  21:Middlewares/Third_Party/FreeRTOS/Source/portable/GCC/ARM_CM4F/portmacro.h ****  *
  22:Middlewares/Third_Party/FreeRTOS/Source/portable/GCC/ARM_CM4F/portmacro.h ****  * http://www.FreeRTOS.org
  23:Middlewares/Third_Party/FreeRTOS/Source/portable/GCC/ARM_CM4F/portmacro.h ****  * http://aws.amazon.com/freertos
  24:Middlewares/Third_Party/FreeRTOS/Source/portable/GCC/ARM_CM4F/portmacro.h ****  *
  25:Middlewares/Third_Party/FreeRTOS/Source/portable/GCC/ARM_CM4F/portmacro.h ****  * 1 tab == 4 spaces!
  26:Middlewares/Third_Party/FreeRTOS/Source/portable/GCC/ARM_CM4F/portmacro.h ****  */
  27:Middlewares/Third_Party/FreeRTOS/Source/portable/GCC/ARM_CM4F/portmacro.h **** 
  28:Middlewares/Third_Party/FreeRTOS/Source/portable/GCC/ARM_CM4F/portmacro.h **** 
  29:Middlewares/Third_Party/FreeRTOS/Source/portable/GCC/ARM_CM4F/portmacro.h **** #ifndef PORTMACRO_H
  30:Middlewares/Third_Party/FreeRTOS/Source/portable/GCC/ARM_CM4F/portmacro.h **** #define PORTMACRO_H
  31:Middlewares/Third_Party/FreeRTOS/Source/portable/GCC/ARM_CM4F/portmacro.h **** 
  32:Middlewares/Third_Party/FreeRTOS/Source/portable/GCC/ARM_CM4F/portmacro.h **** #ifdef __cplusplus
  33:Middlewares/Third_Party/FreeRTOS/Source/portable/GCC/ARM_CM4F/portmacro.h **** extern "C" {
  34:Middlewares/Third_Party/FreeRTOS/Source/portable/GCC/ARM_CM4F/portmacro.h **** #endif
  35:Middlewares/Third_Party/FreeRTOS/Source/portable/GCC/ARM_CM4F/portmacro.h **** 
  36:Middlewares/Third_Party/FreeRTOS/Source/portable/GCC/ARM_CM4F/portmacro.h **** /*-----------------------------------------------------------
  37:Middlewares/Third_Party/FreeRTOS/Source/portable/GCC/ARM_CM4F/portmacro.h ****  * Port specific definitions.
  38:Middlewares/Third_Party/FreeRTOS/Source/portable/GCC/ARM_CM4F/portmacro.h ****  *
  39:Middlewares/Third_Party/FreeRTOS/Source/portable/GCC/ARM_CM4F/portmacro.h ****  * The settings in this file configure FreeRTOS correctly for the
  40:Middlewares/Third_Party/FreeRTOS/Source/portable/GCC/ARM_CM4F/portmacro.h ****  * given hardware and compiler.
  41:Middlewares/Third_Party/FreeRTOS/Source/portable/GCC/ARM_CM4F/portmacro.h ****  *
  42:Middlewares/Third_Party/FreeRTOS/Source/portable/GCC/ARM_CM4F/portmacro.h ****  * These settings should not be altered.
  43:Middlewares/Third_Party/FreeRTOS/Source/portable/GCC/ARM_CM4F/portmacro.h ****  *-----------------------------------------------------------
  44:Middlewares/Third_Party/FreeRTOS/Source/portable/GCC/ARM_CM4F/portmacro.h ****  */
  45:Middlewares/Third_Party/FreeRTOS/Source/portable/GCC/ARM_CM4F/portmacro.h **** 
  46:Middlewares/Third_Party/FreeRTOS/Source/portable/GCC/ARM_CM4F/portmacro.h **** /* Type definitions. */
  47:Middlewares/Third_Party/FreeRTOS/Source/portable/GCC/ARM_CM4F/portmacro.h **** #define portCHAR		char
  48:Middlewares/Third_Party/FreeRTOS/Source/portable/GCC/ARM_CM4F/portmacro.h **** #define portFLOAT		float
  49:Middlewares/Third_Party/FreeRTOS/Source/portable/GCC/ARM_CM4F/portmacro.h **** #define portDOUBLE		double
  50:Middlewares/Third_Party/FreeRTOS/Source/portable/GCC/ARM_CM4F/portmacro.h **** #define portLONG		long
  51:Middlewares/Third_Party/FreeRTOS/Source/portable/GCC/ARM_CM4F/portmacro.h **** #define portSHORT		short
  52:Middlewares/Third_Party/FreeRTOS/Source/portable/GCC/ARM_CM4F/portmacro.h **** #define portSTACK_TYPE	uint32_t
ARM GAS  /tmp/ccKrWf9C.s 			page 25


  53:Middlewares/Third_Party/FreeRTOS/Source/portable/GCC/ARM_CM4F/portmacro.h **** #define portBASE_TYPE	long
  54:Middlewares/Third_Party/FreeRTOS/Source/portable/GCC/ARM_CM4F/portmacro.h **** 
  55:Middlewares/Third_Party/FreeRTOS/Source/portable/GCC/ARM_CM4F/portmacro.h **** typedef portSTACK_TYPE StackType_t;
  56:Middlewares/Third_Party/FreeRTOS/Source/portable/GCC/ARM_CM4F/portmacro.h **** typedef long BaseType_t;
  57:Middlewares/Third_Party/FreeRTOS/Source/portable/GCC/ARM_CM4F/portmacro.h **** typedef unsigned long UBaseType_t;
  58:Middlewares/Third_Party/FreeRTOS/Source/portable/GCC/ARM_CM4F/portmacro.h **** 
  59:Middlewares/Third_Party/FreeRTOS/Source/portable/GCC/ARM_CM4F/portmacro.h **** #if( configUSE_16_BIT_TICKS == 1 )
  60:Middlewares/Third_Party/FreeRTOS/Source/portable/GCC/ARM_CM4F/portmacro.h **** 	typedef uint16_t TickType_t;
  61:Middlewares/Third_Party/FreeRTOS/Source/portable/GCC/ARM_CM4F/portmacro.h **** 	#define portMAX_DELAY ( TickType_t ) 0xffff
  62:Middlewares/Third_Party/FreeRTOS/Source/portable/GCC/ARM_CM4F/portmacro.h **** #else
  63:Middlewares/Third_Party/FreeRTOS/Source/portable/GCC/ARM_CM4F/portmacro.h **** 	typedef uint32_t TickType_t;
  64:Middlewares/Third_Party/FreeRTOS/Source/portable/GCC/ARM_CM4F/portmacro.h **** 	#define portMAX_DELAY ( TickType_t ) 0xffffffffUL
  65:Middlewares/Third_Party/FreeRTOS/Source/portable/GCC/ARM_CM4F/portmacro.h **** 
  66:Middlewares/Third_Party/FreeRTOS/Source/portable/GCC/ARM_CM4F/portmacro.h **** 	/* 32-bit tick type on a 32-bit architecture, so reads of the tick count do
  67:Middlewares/Third_Party/FreeRTOS/Source/portable/GCC/ARM_CM4F/portmacro.h **** 	not need to be guarded with a critical section. */
  68:Middlewares/Third_Party/FreeRTOS/Source/portable/GCC/ARM_CM4F/portmacro.h **** 	#define portTICK_TYPE_IS_ATOMIC 1
  69:Middlewares/Third_Party/FreeRTOS/Source/portable/GCC/ARM_CM4F/portmacro.h **** #endif
  70:Middlewares/Third_Party/FreeRTOS/Source/portable/GCC/ARM_CM4F/portmacro.h **** /*-----------------------------------------------------------*/
  71:Middlewares/Third_Party/FreeRTOS/Source/portable/GCC/ARM_CM4F/portmacro.h **** 
  72:Middlewares/Third_Party/FreeRTOS/Source/portable/GCC/ARM_CM4F/portmacro.h **** /* Architecture specifics. */
  73:Middlewares/Third_Party/FreeRTOS/Source/portable/GCC/ARM_CM4F/portmacro.h **** #define portSTACK_GROWTH			( -1 )
  74:Middlewares/Third_Party/FreeRTOS/Source/portable/GCC/ARM_CM4F/portmacro.h **** #define portTICK_PERIOD_MS			( ( TickType_t ) 1000 / configTICK_RATE_HZ )
  75:Middlewares/Third_Party/FreeRTOS/Source/portable/GCC/ARM_CM4F/portmacro.h **** #define portBYTE_ALIGNMENT			8
  76:Middlewares/Third_Party/FreeRTOS/Source/portable/GCC/ARM_CM4F/portmacro.h **** /*-----------------------------------------------------------*/
  77:Middlewares/Third_Party/FreeRTOS/Source/portable/GCC/ARM_CM4F/portmacro.h **** 
  78:Middlewares/Third_Party/FreeRTOS/Source/portable/GCC/ARM_CM4F/portmacro.h **** /* Scheduler utilities. */
  79:Middlewares/Third_Party/FreeRTOS/Source/portable/GCC/ARM_CM4F/portmacro.h **** #define portYIELD() 															\
  80:Middlewares/Third_Party/FreeRTOS/Source/portable/GCC/ARM_CM4F/portmacro.h **** {																				\
  81:Middlewares/Third_Party/FreeRTOS/Source/portable/GCC/ARM_CM4F/portmacro.h **** 	/* Set a PendSV to request a context switch. */								\
  82:Middlewares/Third_Party/FreeRTOS/Source/portable/GCC/ARM_CM4F/portmacro.h **** 	portNVIC_INT_CTRL_REG = portNVIC_PENDSVSET_BIT;								\
  83:Middlewares/Third_Party/FreeRTOS/Source/portable/GCC/ARM_CM4F/portmacro.h **** 																				\
  84:Middlewares/Third_Party/FreeRTOS/Source/portable/GCC/ARM_CM4F/portmacro.h **** 	/* Barriers are normally not required but do ensure the code is completely	\
  85:Middlewares/Third_Party/FreeRTOS/Source/portable/GCC/ARM_CM4F/portmacro.h **** 	within the specified behaviour for the architecture. */						\
  86:Middlewares/Third_Party/FreeRTOS/Source/portable/GCC/ARM_CM4F/portmacro.h **** 	__asm volatile( "dsb" ::: "memory" );										\
  87:Middlewares/Third_Party/FreeRTOS/Source/portable/GCC/ARM_CM4F/portmacro.h **** 	__asm volatile( "isb" );													\
  88:Middlewares/Third_Party/FreeRTOS/Source/portable/GCC/ARM_CM4F/portmacro.h **** }
  89:Middlewares/Third_Party/FreeRTOS/Source/portable/GCC/ARM_CM4F/portmacro.h **** 
  90:Middlewares/Third_Party/FreeRTOS/Source/portable/GCC/ARM_CM4F/portmacro.h **** #define portNVIC_INT_CTRL_REG		( * ( ( volatile uint32_t * ) 0xe000ed04 ) )
  91:Middlewares/Third_Party/FreeRTOS/Source/portable/GCC/ARM_CM4F/portmacro.h **** #define portNVIC_PENDSVSET_BIT		( 1UL << 28UL )
  92:Middlewares/Third_Party/FreeRTOS/Source/portable/GCC/ARM_CM4F/portmacro.h **** #define portEND_SWITCHING_ISR( xSwitchRequired ) if( xSwitchRequired != pdFALSE ) portYIELD()
  93:Middlewares/Third_Party/FreeRTOS/Source/portable/GCC/ARM_CM4F/portmacro.h **** #define portYIELD_FROM_ISR( x ) portEND_SWITCHING_ISR( x )
  94:Middlewares/Third_Party/FreeRTOS/Source/portable/GCC/ARM_CM4F/portmacro.h **** /*-----------------------------------------------------------*/
  95:Middlewares/Third_Party/FreeRTOS/Source/portable/GCC/ARM_CM4F/portmacro.h **** 
  96:Middlewares/Third_Party/FreeRTOS/Source/portable/GCC/ARM_CM4F/portmacro.h **** /* Critical section management. */
  97:Middlewares/Third_Party/FreeRTOS/Source/portable/GCC/ARM_CM4F/portmacro.h **** extern void vPortEnterCritical( void );
  98:Middlewares/Third_Party/FreeRTOS/Source/portable/GCC/ARM_CM4F/portmacro.h **** extern void vPortExitCritical( void );
  99:Middlewares/Third_Party/FreeRTOS/Source/portable/GCC/ARM_CM4F/portmacro.h **** #define portSET_INTERRUPT_MASK_FROM_ISR()		ulPortRaiseBASEPRI()
 100:Middlewares/Third_Party/FreeRTOS/Source/portable/GCC/ARM_CM4F/portmacro.h **** #define portCLEAR_INTERRUPT_MASK_FROM_ISR(x)	vPortSetBASEPRI(x)
 101:Middlewares/Third_Party/FreeRTOS/Source/portable/GCC/ARM_CM4F/portmacro.h **** #define portDISABLE_INTERRUPTS()				vPortRaiseBASEPRI()
 102:Middlewares/Third_Party/FreeRTOS/Source/portable/GCC/ARM_CM4F/portmacro.h **** #define portENABLE_INTERRUPTS()					vPortSetBASEPRI(0)
 103:Middlewares/Third_Party/FreeRTOS/Source/portable/GCC/ARM_CM4F/portmacro.h **** #define portENTER_CRITICAL()					vPortEnterCritical()
 104:Middlewares/Third_Party/FreeRTOS/Source/portable/GCC/ARM_CM4F/portmacro.h **** #define portEXIT_CRITICAL()						vPortExitCritical()
 105:Middlewares/Third_Party/FreeRTOS/Source/portable/GCC/ARM_CM4F/portmacro.h **** 
 106:Middlewares/Third_Party/FreeRTOS/Source/portable/GCC/ARM_CM4F/portmacro.h **** /*-----------------------------------------------------------*/
 107:Middlewares/Third_Party/FreeRTOS/Source/portable/GCC/ARM_CM4F/portmacro.h **** 
 108:Middlewares/Third_Party/FreeRTOS/Source/portable/GCC/ARM_CM4F/portmacro.h **** /* Task function macros as described on the FreeRTOS.org WEB site.  These are
 109:Middlewares/Third_Party/FreeRTOS/Source/portable/GCC/ARM_CM4F/portmacro.h **** not necessary for to use this port.  They are defined so the common demo files
ARM GAS  /tmp/ccKrWf9C.s 			page 26


 110:Middlewares/Third_Party/FreeRTOS/Source/portable/GCC/ARM_CM4F/portmacro.h **** (which build with all the ports) will build. */
 111:Middlewares/Third_Party/FreeRTOS/Source/portable/GCC/ARM_CM4F/portmacro.h **** #define portTASK_FUNCTION_PROTO( vFunction, pvParameters ) void vFunction( void *pvParameters )
 112:Middlewares/Third_Party/FreeRTOS/Source/portable/GCC/ARM_CM4F/portmacro.h **** #define portTASK_FUNCTION( vFunction, pvParameters ) void vFunction( void *pvParameters )
 113:Middlewares/Third_Party/FreeRTOS/Source/portable/GCC/ARM_CM4F/portmacro.h **** /*-----------------------------------------------------------*/
 114:Middlewares/Third_Party/FreeRTOS/Source/portable/GCC/ARM_CM4F/portmacro.h **** 
 115:Middlewares/Third_Party/FreeRTOS/Source/portable/GCC/ARM_CM4F/portmacro.h **** /* Tickless idle/low power functionality. */
 116:Middlewares/Third_Party/FreeRTOS/Source/portable/GCC/ARM_CM4F/portmacro.h **** #ifndef portSUPPRESS_TICKS_AND_SLEEP
 117:Middlewares/Third_Party/FreeRTOS/Source/portable/GCC/ARM_CM4F/portmacro.h **** 	extern void vPortSuppressTicksAndSleep( TickType_t xExpectedIdleTime );
 118:Middlewares/Third_Party/FreeRTOS/Source/portable/GCC/ARM_CM4F/portmacro.h **** 	#define portSUPPRESS_TICKS_AND_SLEEP( xExpectedIdleTime ) vPortSuppressTicksAndSleep( xExpectedIdl
 119:Middlewares/Third_Party/FreeRTOS/Source/portable/GCC/ARM_CM4F/portmacro.h **** #endif
 120:Middlewares/Third_Party/FreeRTOS/Source/portable/GCC/ARM_CM4F/portmacro.h **** /*-----------------------------------------------------------*/
 121:Middlewares/Third_Party/FreeRTOS/Source/portable/GCC/ARM_CM4F/portmacro.h **** 
 122:Middlewares/Third_Party/FreeRTOS/Source/portable/GCC/ARM_CM4F/portmacro.h **** /* Architecture specific optimisations. */
 123:Middlewares/Third_Party/FreeRTOS/Source/portable/GCC/ARM_CM4F/portmacro.h **** #ifndef configUSE_PORT_OPTIMISED_TASK_SELECTION
 124:Middlewares/Third_Party/FreeRTOS/Source/portable/GCC/ARM_CM4F/portmacro.h **** 	#define configUSE_PORT_OPTIMISED_TASK_SELECTION 1
 125:Middlewares/Third_Party/FreeRTOS/Source/portable/GCC/ARM_CM4F/portmacro.h **** #endif
 126:Middlewares/Third_Party/FreeRTOS/Source/portable/GCC/ARM_CM4F/portmacro.h **** 
 127:Middlewares/Third_Party/FreeRTOS/Source/portable/GCC/ARM_CM4F/portmacro.h **** #if configUSE_PORT_OPTIMISED_TASK_SELECTION == 1
 128:Middlewares/Third_Party/FreeRTOS/Source/portable/GCC/ARM_CM4F/portmacro.h **** 
 129:Middlewares/Third_Party/FreeRTOS/Source/portable/GCC/ARM_CM4F/portmacro.h **** 	/* Generic helper function. */
 130:Middlewares/Third_Party/FreeRTOS/Source/portable/GCC/ARM_CM4F/portmacro.h **** 	__attribute__( ( always_inline ) ) static inline uint8_t ucPortCountLeadingZeros( uint32_t ulBitma
 131:Middlewares/Third_Party/FreeRTOS/Source/portable/GCC/ARM_CM4F/portmacro.h **** 	{
 132:Middlewares/Third_Party/FreeRTOS/Source/portable/GCC/ARM_CM4F/portmacro.h **** 	uint8_t ucReturn;
 133:Middlewares/Third_Party/FreeRTOS/Source/portable/GCC/ARM_CM4F/portmacro.h **** 
 134:Middlewares/Third_Party/FreeRTOS/Source/portable/GCC/ARM_CM4F/portmacro.h **** 		__asm volatile ( "clz %0, %1" : "=r" ( ucReturn ) : "r" ( ulBitmap ) : "memory" );
 135:Middlewares/Third_Party/FreeRTOS/Source/portable/GCC/ARM_CM4F/portmacro.h **** 		return ucReturn;
 136:Middlewares/Third_Party/FreeRTOS/Source/portable/GCC/ARM_CM4F/portmacro.h **** 	}
 137:Middlewares/Third_Party/FreeRTOS/Source/portable/GCC/ARM_CM4F/portmacro.h **** 
 138:Middlewares/Third_Party/FreeRTOS/Source/portable/GCC/ARM_CM4F/portmacro.h **** 	/* Check the configuration. */
 139:Middlewares/Third_Party/FreeRTOS/Source/portable/GCC/ARM_CM4F/portmacro.h **** 	#if( configMAX_PRIORITIES > 32 )
 140:Middlewares/Third_Party/FreeRTOS/Source/portable/GCC/ARM_CM4F/portmacro.h **** 		#error configUSE_PORT_OPTIMISED_TASK_SELECTION can only be set to 1 when configMAX_PRIORITIES is 
 141:Middlewares/Third_Party/FreeRTOS/Source/portable/GCC/ARM_CM4F/portmacro.h **** 	#endif
 142:Middlewares/Third_Party/FreeRTOS/Source/portable/GCC/ARM_CM4F/portmacro.h **** 
 143:Middlewares/Third_Party/FreeRTOS/Source/portable/GCC/ARM_CM4F/portmacro.h **** 	/* Store/clear the ready priorities in a bit map. */
 144:Middlewares/Third_Party/FreeRTOS/Source/portable/GCC/ARM_CM4F/portmacro.h **** 	#define portRECORD_READY_PRIORITY( uxPriority, uxReadyPriorities ) ( uxReadyPriorities ) |= ( 1UL 
 145:Middlewares/Third_Party/FreeRTOS/Source/portable/GCC/ARM_CM4F/portmacro.h **** 	#define portRESET_READY_PRIORITY( uxPriority, uxReadyPriorities ) ( uxReadyPriorities ) &= ~( 1UL 
 146:Middlewares/Third_Party/FreeRTOS/Source/portable/GCC/ARM_CM4F/portmacro.h **** 
 147:Middlewares/Third_Party/FreeRTOS/Source/portable/GCC/ARM_CM4F/portmacro.h **** 	/*-----------------------------------------------------------*/
 148:Middlewares/Third_Party/FreeRTOS/Source/portable/GCC/ARM_CM4F/portmacro.h **** 
 149:Middlewares/Third_Party/FreeRTOS/Source/portable/GCC/ARM_CM4F/portmacro.h **** 	#define portGET_HIGHEST_PRIORITY( uxTopPriority, uxReadyPriorities ) uxTopPriority = ( 31UL - ( ui
 150:Middlewares/Third_Party/FreeRTOS/Source/portable/GCC/ARM_CM4F/portmacro.h **** 
 151:Middlewares/Third_Party/FreeRTOS/Source/portable/GCC/ARM_CM4F/portmacro.h **** #endif /* configUSE_PORT_OPTIMISED_TASK_SELECTION */
 152:Middlewares/Third_Party/FreeRTOS/Source/portable/GCC/ARM_CM4F/portmacro.h **** 
 153:Middlewares/Third_Party/FreeRTOS/Source/portable/GCC/ARM_CM4F/portmacro.h **** /*-----------------------------------------------------------*/
 154:Middlewares/Third_Party/FreeRTOS/Source/portable/GCC/ARM_CM4F/portmacro.h **** 
 155:Middlewares/Third_Party/FreeRTOS/Source/portable/GCC/ARM_CM4F/portmacro.h **** #ifdef configASSERT
 156:Middlewares/Third_Party/FreeRTOS/Source/portable/GCC/ARM_CM4F/portmacro.h **** 	void vPortValidateInterruptPriority( void );
 157:Middlewares/Third_Party/FreeRTOS/Source/portable/GCC/ARM_CM4F/portmacro.h **** 	#define portASSERT_IF_INTERRUPT_PRIORITY_INVALID() 	vPortValidateInterruptPriority()
 158:Middlewares/Third_Party/FreeRTOS/Source/portable/GCC/ARM_CM4F/portmacro.h **** #endif
 159:Middlewares/Third_Party/FreeRTOS/Source/portable/GCC/ARM_CM4F/portmacro.h **** 
 160:Middlewares/Third_Party/FreeRTOS/Source/portable/GCC/ARM_CM4F/portmacro.h **** /* portNOP() is not required by this port. */
 161:Middlewares/Third_Party/FreeRTOS/Source/portable/GCC/ARM_CM4F/portmacro.h **** #define portNOP()
 162:Middlewares/Third_Party/FreeRTOS/Source/portable/GCC/ARM_CM4F/portmacro.h **** 
 163:Middlewares/Third_Party/FreeRTOS/Source/portable/GCC/ARM_CM4F/portmacro.h **** #define portINLINE	__inline
 164:Middlewares/Third_Party/FreeRTOS/Source/portable/GCC/ARM_CM4F/portmacro.h **** 
 165:Middlewares/Third_Party/FreeRTOS/Source/portable/GCC/ARM_CM4F/portmacro.h **** #ifndef portFORCE_INLINE
 166:Middlewares/Third_Party/FreeRTOS/Source/portable/GCC/ARM_CM4F/portmacro.h **** 	#define portFORCE_INLINE inline __attribute__(( always_inline))
ARM GAS  /tmp/ccKrWf9C.s 			page 27


 167:Middlewares/Third_Party/FreeRTOS/Source/portable/GCC/ARM_CM4F/portmacro.h **** #endif
 168:Middlewares/Third_Party/FreeRTOS/Source/portable/GCC/ARM_CM4F/portmacro.h **** 
 169:Middlewares/Third_Party/FreeRTOS/Source/portable/GCC/ARM_CM4F/portmacro.h **** portFORCE_INLINE static BaseType_t xPortIsInsideInterrupt( void )
 170:Middlewares/Third_Party/FreeRTOS/Source/portable/GCC/ARM_CM4F/portmacro.h **** {
 171:Middlewares/Third_Party/FreeRTOS/Source/portable/GCC/ARM_CM4F/portmacro.h **** uint32_t ulCurrentInterrupt;
 172:Middlewares/Third_Party/FreeRTOS/Source/portable/GCC/ARM_CM4F/portmacro.h **** BaseType_t xReturn;
 173:Middlewares/Third_Party/FreeRTOS/Source/portable/GCC/ARM_CM4F/portmacro.h **** 
 174:Middlewares/Third_Party/FreeRTOS/Source/portable/GCC/ARM_CM4F/portmacro.h **** 	/* Obtain the number of the currently executing interrupt. */
 175:Middlewares/Third_Party/FreeRTOS/Source/portable/GCC/ARM_CM4F/portmacro.h **** 	__asm volatile( "mrs %0, ipsr" : "=r"( ulCurrentInterrupt ) :: "memory" );
 176:Middlewares/Third_Party/FreeRTOS/Source/portable/GCC/ARM_CM4F/portmacro.h **** 
 177:Middlewares/Third_Party/FreeRTOS/Source/portable/GCC/ARM_CM4F/portmacro.h **** 	if( ulCurrentInterrupt == 0 )
 178:Middlewares/Third_Party/FreeRTOS/Source/portable/GCC/ARM_CM4F/portmacro.h **** 	{
 179:Middlewares/Third_Party/FreeRTOS/Source/portable/GCC/ARM_CM4F/portmacro.h **** 		xReturn = pdFALSE;
 180:Middlewares/Third_Party/FreeRTOS/Source/portable/GCC/ARM_CM4F/portmacro.h **** 	}
 181:Middlewares/Third_Party/FreeRTOS/Source/portable/GCC/ARM_CM4F/portmacro.h **** 	else
 182:Middlewares/Third_Party/FreeRTOS/Source/portable/GCC/ARM_CM4F/portmacro.h **** 	{
 183:Middlewares/Third_Party/FreeRTOS/Source/portable/GCC/ARM_CM4F/portmacro.h **** 		xReturn = pdTRUE;
 184:Middlewares/Third_Party/FreeRTOS/Source/portable/GCC/ARM_CM4F/portmacro.h **** 	}
 185:Middlewares/Third_Party/FreeRTOS/Source/portable/GCC/ARM_CM4F/portmacro.h **** 
 186:Middlewares/Third_Party/FreeRTOS/Source/portable/GCC/ARM_CM4F/portmacro.h **** 	return xReturn;
 187:Middlewares/Third_Party/FreeRTOS/Source/portable/GCC/ARM_CM4F/portmacro.h **** }
 188:Middlewares/Third_Party/FreeRTOS/Source/portable/GCC/ARM_CM4F/portmacro.h **** 
 189:Middlewares/Third_Party/FreeRTOS/Source/portable/GCC/ARM_CM4F/portmacro.h **** /*-----------------------------------------------------------*/
 190:Middlewares/Third_Party/FreeRTOS/Source/portable/GCC/ARM_CM4F/portmacro.h **** 
 191:Middlewares/Third_Party/FreeRTOS/Source/portable/GCC/ARM_CM4F/portmacro.h **** portFORCE_INLINE static void vPortRaiseBASEPRI( void )
 192:Middlewares/Third_Party/FreeRTOS/Source/portable/GCC/ARM_CM4F/portmacro.h **** {
 193:Middlewares/Third_Party/FreeRTOS/Source/portable/GCC/ARM_CM4F/portmacro.h **** uint32_t ulNewBASEPRI;
 194:Middlewares/Third_Party/FreeRTOS/Source/portable/GCC/ARM_CM4F/portmacro.h **** 
 195:Middlewares/Third_Party/FreeRTOS/Source/portable/GCC/ARM_CM4F/portmacro.h **** 	__asm volatile
  96              		.loc 2 195 0
  97              		.syntax unified
  98              	@ 195 "Middlewares/Third_Party/FreeRTOS/Source/portable/GCC/ARM_CM4F/portmacro.h" 1
  99 0016 4FF05003 			mov r3, #80												
 100 001a 83F31188 		msr basepri, r3											
 101 001e BFF36F8F 		isb														
 102 0022 BFF34F8F 		dsb														
 103              	
 104              	@ 0 "" 2
 105              	.LVL10:
 106              		.thumb
 107              		.syntax unified
 108              	.L5:
 109 0026 FEE7     		b	.L5
 110              	.L4:
 111              	.LBE98:
 112              	.LBE97:
 113              	.LBE96:
1225:Middlewares/Third_Party/FreeRTOS/Source/stream_buffer.c **** 	} /*lint !e529 !e438 xWriteValue is only used if configASSERT() is defined. */
1226:Middlewares/Third_Party/FreeRTOS/Source/stream_buffer.c **** 	#endif
1227:Middlewares/Third_Party/FreeRTOS/Source/stream_buffer.c **** 
1228:Middlewares/Third_Party/FreeRTOS/Source/stream_buffer.c **** 	( void ) memset( ( void * ) pxStreamBuffer, 0x00, sizeof( StreamBuffer_t ) ); /*lint !e9087 memset
 114              		.loc 1 1228 0
 115 0028 2422     		movs	r2, #36
 116 002a 0021     		movs	r1, #0
 117 002c 2046     		mov	r0, r4
 118 002e FFF7FEFF 		bl	memset
 119              	.LVL11:
ARM GAS  /tmp/ccKrWf9C.s 			page 28


1229:Middlewares/Third_Party/FreeRTOS/Source/stream_buffer.c **** 	pxStreamBuffer->pucBuffer = pucBuffer;
 120              		.loc 1 1229 0
 121 0032 A561     		str	r5, [r4, #24]
1230:Middlewares/Third_Party/FreeRTOS/Source/stream_buffer.c **** 	pxStreamBuffer->xLength = xBufferSizeBytes;
 122              		.loc 1 1230 0
 123 0034 A760     		str	r7, [r4, #8]
1231:Middlewares/Third_Party/FreeRTOS/Source/stream_buffer.c **** 	pxStreamBuffer->xTriggerLevelBytes = xTriggerLevelBytes;
 124              		.loc 1 1231 0
 125 0036 E660     		str	r6, [r4, #12]
1232:Middlewares/Third_Party/FreeRTOS/Source/stream_buffer.c **** 	pxStreamBuffer->ucFlags = ucFlags;
 126              		.loc 1 1232 0
 127 0038 9DF81830 		ldrb	r3, [sp, #24]	@ zero_extendqisi2
 128 003c 2377     		strb	r3, [r4, #28]
 129 003e F8BD     		pop	{r3, r4, r5, r6, r7, pc}
 130              		.cfi_endproc
 131              	.LFE25:
 133              		.section	.text.prvWriteBytesToBuffer,"ax",%progbits
 134              		.align	2
 135              		.thumb
 136              		.thumb_func
 138              	prvWriteBytesToBuffer:
 139              	.LFB22:
1089:Middlewares/Third_Party/FreeRTOS/Source/stream_buffer.c **** size_t xNextHead, xFirstLength;
 140              		.loc 1 1089 0
 141              		.cfi_startproc
 142              		@ args = 0, pretend = 0, frame = 0
 143              		@ frame_needed = 0, uses_anonymous_args = 0
 144              	.LVL12:
1092:Middlewares/Third_Party/FreeRTOS/Source/stream_buffer.c **** 
 145              		.loc 1 1092 0
 146 0000 42B9     		cbnz	r2, .L8
 147              	.LBB99:
 148              	.LBB100:
 149              		.loc 2 195 0
 150              		.syntax unified
 151              	@ 195 "Middlewares/Third_Party/FreeRTOS/Source/portable/GCC/ARM_CM4F/portmacro.h" 1
 152 0002 4FF05003 			mov r3, #80												
 153 0006 83F31188 		msr basepri, r3											
 154 000a BFF36F8F 		isb														
 155 000e BFF34F8F 		dsb														
 156              	
 157              	@ 0 "" 2
 158              	.LVL13:
 159              		.thumb
 160              		.syntax unified
 161              	.L9:
 162 0012 FEE7     		b	.L9
 163              	.L8:
 164              	.LBE100:
 165              	.LBE99:
1089:Middlewares/Third_Party/FreeRTOS/Source/stream_buffer.c **** size_t xNextHead, xFirstLength;
 166              		.loc 1 1089 0
 167 0014 2DE9F041 		push	{r4, r5, r6, r7, r8, lr}
 168              	.LCFI1:
 169              		.cfi_def_cfa_offset 24
 170              		.cfi_offset 4, -24
 171              		.cfi_offset 5, -20
ARM GAS  /tmp/ccKrWf9C.s 			page 29


 172              		.cfi_offset 6, -16
 173              		.cfi_offset 7, -12
 174              		.cfi_offset 8, -8
 175              		.cfi_offset 14, -4
 176 0018 1746     		mov	r7, r2
1094:Middlewares/Third_Party/FreeRTOS/Source/stream_buffer.c **** 
 177              		.loc 1 1094 0
 178 001a 4668     		ldr	r6, [r0, #4]
 179              	.LVL14:
1099:Middlewares/Third_Party/FreeRTOS/Source/stream_buffer.c **** 
 180              		.loc 1 1099 0
 181 001c 8368     		ldr	r3, [r0, #8]
 182 001e C6EB0308 		rsb	r8, r6, r3
 183 0022 9045     		cmp	r8, r2
 184 0024 28BF     		it	cs
 185 0026 9046     		movcs	r8, r2
 186              	.LVL15:
1102:Middlewares/Third_Party/FreeRTOS/Source/stream_buffer.c **** 	( void ) memcpy( ( void* ) ( &( pxStreamBuffer->pucBuffer[ xNextHead ] ) ), ( const void * ) pucDa
 187              		.loc 1 1102 0
 188 0028 06EB0802 		add	r2, r6, r8
 189              	.LVL16:
 190 002c 9342     		cmp	r3, r2
 191 002e 08D2     		bcs	.L10
 192              	.LBB101:
 193              	.LBB102:
 194              		.loc 2 195 0
 195              		.syntax unified
 196              	@ 195 "Middlewares/Third_Party/FreeRTOS/Source/portable/GCC/ARM_CM4F/portmacro.h" 1
 197 0030 4FF05003 			mov r3, #80												
 198 0034 83F31188 		msr basepri, r3											
 199 0038 BFF36F8F 		isb														
 200 003c BFF34F8F 		dsb														
 201              	
 202              	@ 0 "" 2
 203              	.LVL17:
 204              		.thumb
 205              		.syntax unified
 206              	.L11:
 207 0040 FEE7     		b	.L11
 208              	.L10:
 209 0042 0D46     		mov	r5, r1
 210 0044 0446     		mov	r4, r0
 211              	.LBE102:
 212              	.LBE101:
1103:Middlewares/Third_Party/FreeRTOS/Source/stream_buffer.c **** 
 213              		.loc 1 1103 0
 214 0046 8069     		ldr	r0, [r0, #24]
 215              	.LVL18:
 216 0048 4246     		mov	r2, r8
 217 004a 3044     		add	r0, r0, r6
 218 004c FFF7FEFF 		bl	memcpy
 219              	.LVL19:
1107:Middlewares/Third_Party/FreeRTOS/Source/stream_buffer.c **** 	{
 220              		.loc 1 1107 0
 221 0050 4745     		cmp	r7, r8
 222 0052 12D9     		bls	.L12
1110:Middlewares/Third_Party/FreeRTOS/Source/stream_buffer.c **** 		( void ) memcpy( ( void * ) pxStreamBuffer->pucBuffer, ( const void * ) &( pucData[ xFirstLength 
ARM GAS  /tmp/ccKrWf9C.s 			page 30


 223              		.loc 1 1110 0
 224 0054 C8EB0702 		rsb	r2, r8, r7
 225 0058 A368     		ldr	r3, [r4, #8]
 226 005a 9A42     		cmp	r2, r3
 227 005c 08D9     		bls	.L13
 228              	.LBB103:
 229              	.LBB104:
 230              		.loc 2 195 0
 231              		.syntax unified
 232              	@ 195 "Middlewares/Third_Party/FreeRTOS/Source/portable/GCC/ARM_CM4F/portmacro.h" 1
 233 005e 4FF05003 			mov r3, #80												
 234 0062 83F31188 		msr basepri, r3											
 235 0066 BFF36F8F 		isb														
 236 006a BFF34F8F 		dsb														
 237              	
 238              	@ 0 "" 2
 239              	.LVL20:
 240              		.thumb
 241              		.syntax unified
 242              	.L14:
 243 006e FEE7     		b	.L14
 244              	.L13:
 245              	.LBE104:
 246              	.LBE103:
1111:Middlewares/Third_Party/FreeRTOS/Source/stream_buffer.c **** 	}
 247              		.loc 1 1111 0
 248 0070 05EB0801 		add	r1, r5, r8
 249 0074 A069     		ldr	r0, [r4, #24]
 250 0076 FFF7FEFF 		bl	memcpy
 251              	.LVL21:
 252              	.L12:
1118:Middlewares/Third_Party/FreeRTOS/Source/stream_buffer.c **** 	if( xNextHead >= pxStreamBuffer->xLength )
 253              		.loc 1 1118 0
 254 007a BB19     		adds	r3, r7, r6
 255              	.LVL22:
1119:Middlewares/Third_Party/FreeRTOS/Source/stream_buffer.c **** 	{
 256              		.loc 1 1119 0
 257 007c A268     		ldr	r2, [r4, #8]
 258 007e 9342     		cmp	r3, r2
 259 0080 00D3     		bcc	.L15
1121:Middlewares/Third_Party/FreeRTOS/Source/stream_buffer.c **** 	}
 260              		.loc 1 1121 0
 261 0082 9B1A     		subs	r3, r3, r2
 262              	.LVL23:
 263              	.L15:
1128:Middlewares/Third_Party/FreeRTOS/Source/stream_buffer.c **** 
 264              		.loc 1 1128 0
 265 0084 6360     		str	r3, [r4, #4]
1131:Middlewares/Third_Party/FreeRTOS/Source/stream_buffer.c **** /*-----------------------------------------------------------*/
 266              		.loc 1 1131 0
 267 0086 3846     		mov	r0, r7
 268 0088 BDE8F081 		pop	{r4, r5, r6, r7, r8, pc}
 269              		.cfi_endproc
 270              	.LFE22:
 272              		.section	.text.prvWriteMessageToBuffer,"ax",%progbits
 273              		.align	2
 274              		.thumb
ARM GAS  /tmp/ccKrWf9C.s 			page 31


 275              		.thumb_func
 277              	prvWriteMessageToBuffer:
 278              	.LFB13:
 666:Middlewares/Third_Party/FreeRTOS/Source/stream_buffer.c **** 	BaseType_t xShouldWrite;
 279              		.loc 1 666 0
 280              		.cfi_startproc
 281              		@ args = 4, pretend = 0, frame = 8
 282              		@ frame_needed = 0, uses_anonymous_args = 0
 283              	.LVL24:
 284 0000 30B5     		push	{r4, r5, lr}
 285              	.LCFI2:
 286              		.cfi_def_cfa_offset 12
 287              		.cfi_offset 4, -12
 288              		.cfi_offset 5, -8
 289              		.cfi_offset 14, -4
 290 0002 83B0     		sub	sp, sp, #12
 291              	.LCFI3:
 292              		.cfi_def_cfa_offset 24
 293 0004 0446     		mov	r4, r0
 294 0006 0D46     		mov	r5, r1
 295 0008 0192     		str	r2, [sp, #4]
 670:Middlewares/Third_Party/FreeRTOS/Source/stream_buffer.c **** 	{
 296              		.loc 1 670 0
 297 000a ABB1     		cbz	r3, .L21
 298 000c 1A46     		mov	r2, r3
 299              	.LVL25:
 676:Middlewares/Third_Party/FreeRTOS/Source/stream_buffer.c **** 	{
 300              		.loc 1 676 0
 301 000e 037F     		ldrb	r3, [r0, #28]	@ zero_extendqisi2
 302              	.LVL26:
 303 0010 13F0010F 		tst	r3, #1
 304 0014 06D1     		bne	.L19
 305              	.LVL27:
 682:Middlewares/Third_Party/FreeRTOS/Source/stream_buffer.c **** 	}
 306              		.loc 1 682 0
 307 0016 019B     		ldr	r3, [sp, #4]
 308 0018 9A42     		cmp	r2, r3
 309 001a 28BF     		it	cs
 310 001c 1A46     		movcs	r2, r3
 311              	.LVL28:
 312 001e 0192     		str	r2, [sp, #4]
 313              	.LVL29:
 681:Middlewares/Third_Party/FreeRTOS/Source/stream_buffer.c **** 		xDataLengthBytes = configMIN( xDataLengthBytes, xSpace );
 314              		.loc 1 681 0
 315 0020 0123     		movs	r3, #1
 316              	.LVL30:
 317 0022 0CE0     		b	.L18
 318              	.LVL31:
 319              	.L19:
 684:Middlewares/Third_Party/FreeRTOS/Source/stream_buffer.c **** 	{
 320              		.loc 1 684 0
 321 0024 069B     		ldr	r3, [sp, #24]
 322 0026 9A42     		cmp	r2, r3
 323 0028 08D3     		bcc	.L22
 324              	.LVL32:
 691:Middlewares/Third_Party/FreeRTOS/Source/stream_buffer.c **** 	}
 325              		.loc 1 691 0
ARM GAS  /tmp/ccKrWf9C.s 			page 32


 326 002a 0422     		movs	r2, #4
 327              	.LVL33:
 328 002c 0DEB0201 		add	r1, sp, r2
 329              	.LVL34:
 330 0030 FFF7FEFF 		bl	prvWriteBytesToBuffer
 331              	.LVL35:
 690:Middlewares/Third_Party/FreeRTOS/Source/stream_buffer.c **** 		( void ) prvWriteBytesToBuffer( pxStreamBuffer, ( const uint8_t * ) &( xDataLengthBytes ), sbBYTE
 332              		.loc 1 690 0
 333 0034 0123     		movs	r3, #1
 334 0036 02E0     		b	.L18
 335              	.LVL36:
 336              	.L21:
 674:Middlewares/Third_Party/FreeRTOS/Source/stream_buffer.c **** 	}
 337              		.loc 1 674 0
 338 0038 0023     		movs	r3, #0
 339              	.LVL37:
 340 003a 00E0     		b	.L18
 341              	.LVL38:
 342              	.L22:
 696:Middlewares/Third_Party/FreeRTOS/Source/stream_buffer.c **** 	}
 343              		.loc 1 696 0
 344 003c 0023     		movs	r3, #0
 345              	.LVL39:
 346              	.L18:
 699:Middlewares/Third_Party/FreeRTOS/Source/stream_buffer.c **** 	{
 347              		.loc 1 699 0
 348 003e 2BB1     		cbz	r3, .L23
 702:Middlewares/Third_Party/FreeRTOS/Source/stream_buffer.c **** 	}
 349              		.loc 1 702 0
 350 0040 019A     		ldr	r2, [sp, #4]
 351 0042 2946     		mov	r1, r5
 352 0044 2046     		mov	r0, r4
 353 0046 FFF7FEFF 		bl	prvWriteBytesToBuffer
 354              	.LVL40:
 355 004a 00E0     		b	.L20
 356              	.LVL41:
 357              	.L23:
 706:Middlewares/Third_Party/FreeRTOS/Source/stream_buffer.c **** 	}
 358              		.loc 1 706 0
 359 004c 0020     		movs	r0, #0
 360              	.LVL42:
 361              	.L20:
 710:Middlewares/Third_Party/FreeRTOS/Source/stream_buffer.c **** /*-----------------------------------------------------------*/
 362              		.loc 1 710 0
 363 004e 03B0     		add	sp, sp, #12
 364              	.LCFI4:
 365              		.cfi_def_cfa_offset 12
 366              		@ sp needed
 367 0050 30BD     		pop	{r4, r5, pc}
 368              		.cfi_endproc
 369              	.LFE13:
 371 0052 00BF     		.section	.text.prvReadBytesFromBuffer,"ax",%progbits
 372              		.align	2
 373              		.thumb
 374              		.thumb_func
 376              	prvReadBytesFromBuffer:
 377              	.LFB23:
ARM GAS  /tmp/ccKrWf9C.s 			page 33


1135:Middlewares/Third_Party/FreeRTOS/Source/stream_buffer.c **** size_t xCount, xFirstLength, xNextTail;
 378              		.loc 1 1135 0
 379              		.cfi_startproc
 380              		@ args = 0, pretend = 0, frame = 0
 381              		@ frame_needed = 0, uses_anonymous_args = 0
 382              	.LVL43:
 383 0000 2DE9F843 		push	{r3, r4, r5, r6, r7, r8, r9, lr}
 384              	.LCFI5:
 385              		.cfi_def_cfa_offset 32
 386              		.cfi_offset 3, -32
 387              		.cfi_offset 4, -28
 388              		.cfi_offset 5, -24
 389              		.cfi_offset 6, -20
 390              		.cfi_offset 7, -16
 391              		.cfi_offset 8, -12
 392              		.cfi_offset 9, -8
 393              		.cfi_offset 14, -4
1139:Middlewares/Third_Party/FreeRTOS/Source/stream_buffer.c **** 
 394              		.loc 1 1139 0
 395 0004 9046     		mov	r8, r2
 396 0006 9A42     		cmp	r2, r3
 397 0008 28BF     		it	cs
 398 000a 9846     		movcs	r8, r3
 399              	.LVL44:
1141:Middlewares/Third_Party/FreeRTOS/Source/stream_buffer.c **** 	{
 400              		.loc 1 1141 0
 401 000c B8F1000F 		cmp	r8, #0
 402 0010 3ED0     		beq	.L26
1143:Middlewares/Third_Party/FreeRTOS/Source/stream_buffer.c **** 
 403              		.loc 1 1143 0
 404 0012 0468     		ldr	r4, [r0]
 405              	.LVL45:
1148:Middlewares/Third_Party/FreeRTOS/Source/stream_buffer.c **** 
 406              		.loc 1 1148 0
 407 0014 8368     		ldr	r3, [r0, #8]
 408              	.LVL46:
 409 0016 1F1B     		subs	r7, r3, r4
 410 0018 4745     		cmp	r7, r8
 411 001a 28BF     		it	cs
 412 001c 4746     		movcs	r7, r8
 413              	.LVL47:
1152:Middlewares/Third_Party/FreeRTOS/Source/stream_buffer.c **** 		configASSERT( ( xNextTail + xFirstLength ) <= pxStreamBuffer->xLength );
 414              		.loc 1 1152 0
 415 001e BA42     		cmp	r2, r7
 416 0020 08D2     		bcs	.L27
 417              	.LBB105:
 418              	.LBB106:
 419              		.loc 2 195 0
 420              		.syntax unified
 421              	@ 195 "Middlewares/Third_Party/FreeRTOS/Source/portable/GCC/ARM_CM4F/portmacro.h" 1
 422 0022 4FF05003 			mov r3, #80												
 423 0026 83F31188 		msr basepri, r3											
 424 002a BFF36F8F 		isb														
 425 002e BFF34F8F 		dsb														
 426              	
 427              	@ 0 "" 2
 428              	.LVL48:
ARM GAS  /tmp/ccKrWf9C.s 			page 34


 429              		.thumb
 430              		.syntax unified
 431              	.L28:
 432 0032 FEE7     		b	.L28
 433              	.L27:
 434              	.LBE106:
 435              	.LBE105:
1153:Middlewares/Third_Party/FreeRTOS/Source/stream_buffer.c **** 		( void ) memcpy( ( void * ) pucData, ( const void * ) &( pxStreamBuffer->pucBuffer[ xNextTail ] )
 436              		.loc 1 1153 0
 437 0034 E519     		adds	r5, r4, r7
 438 0036 AB42     		cmp	r3, r5
 439 0038 08D2     		bcs	.L29
 440              	.LBB107:
 441              	.LBB108:
 442              		.loc 2 195 0
 443              		.syntax unified
 444              	@ 195 "Middlewares/Third_Party/FreeRTOS/Source/portable/GCC/ARM_CM4F/portmacro.h" 1
 445 003a 4FF05003 			mov r3, #80												
 446 003e 83F31188 		msr basepri, r3											
 447 0042 BFF36F8F 		isb														
 448 0046 BFF34F8F 		dsb														
 449              	
 450              	@ 0 "" 2
 451              	.LVL49:
 452              		.thumb
 453              		.syntax unified
 454              	.L30:
 455 004a FEE7     		b	.L30
 456              	.L29:
 457 004c 9146     		mov	r9, r2
 458 004e 0E46     		mov	r6, r1
 459 0050 0546     		mov	r5, r0
 460              	.LBE108:
 461              	.LBE107:
1154:Middlewares/Third_Party/FreeRTOS/Source/stream_buffer.c **** 
 462              		.loc 1 1154 0
 463 0052 8169     		ldr	r1, [r0, #24]
 464              	.LVL50:
 465 0054 3A46     		mov	r2, r7
 466              	.LVL51:
 467 0056 2144     		add	r1, r1, r4
 468 0058 3046     		mov	r0, r6
 469              	.LVL52:
 470 005a FFF7FEFF 		bl	memcpy
 471              	.LVL53:
1158:Middlewares/Third_Party/FreeRTOS/Source/stream_buffer.c **** 		{
 472              		.loc 1 1158 0
 473 005e B845     		cmp	r8, r7
 474 0060 10D9     		bls	.L31
1161:Middlewares/Third_Party/FreeRTOS/Source/stream_buffer.c **** 			( void ) memcpy( ( void * ) &( pucData[ xFirstLength ] ), ( void * ) ( pxStreamBuffer->pucBuffer
 475              		.loc 1 1161 0
 476 0062 C145     		cmp	r9, r8
 477 0064 08D2     		bcs	.L32
 478              	.LBB109:
 479              	.LBB110:
 480              		.loc 2 195 0
 481              		.syntax unified
ARM GAS  /tmp/ccKrWf9C.s 			page 35


 482              	@ 195 "Middlewares/Third_Party/FreeRTOS/Source/portable/GCC/ARM_CM4F/portmacro.h" 1
 483 0066 4FF05003 			mov r3, #80												
 484 006a 83F31188 		msr basepri, r3											
 485 006e BFF36F8F 		isb														
 486 0072 BFF34F8F 		dsb														
 487              	
 488              	@ 0 "" 2
 489              	.LVL54:
 490              		.thumb
 491              		.syntax unified
 492              	.L33:
 493 0076 FEE7     		b	.L33
 494              	.L32:
 495              	.LBE110:
 496              	.LBE109:
1162:Middlewares/Third_Party/FreeRTOS/Source/stream_buffer.c **** 		}
 497              		.loc 1 1162 0
 498 0078 C7EB0802 		rsb	r2, r7, r8
 499 007c A969     		ldr	r1, [r5, #24]
 500 007e F019     		adds	r0, r6, r7
 501 0080 FFF7FEFF 		bl	memcpy
 502              	.LVL55:
 503              	.L31:
1171:Middlewares/Third_Party/FreeRTOS/Source/stream_buffer.c **** 
 504              		.loc 1 1171 0
 505 0084 4444     		add	r4, r4, r8
 506              	.LVL56:
1173:Middlewares/Third_Party/FreeRTOS/Source/stream_buffer.c **** 		{
 507              		.loc 1 1173 0
 508 0086 AB68     		ldr	r3, [r5, #8]
 509 0088 9C42     		cmp	r4, r3
 510 008a 00D3     		bcc	.L34
1175:Middlewares/Third_Party/FreeRTOS/Source/stream_buffer.c **** 		}
 511              		.loc 1 1175 0
 512 008c E41A     		subs	r4, r4, r3
 513              	.LVL57:
 514              	.L34:
1178:Middlewares/Third_Party/FreeRTOS/Source/stream_buffer.c **** 	}
 515              		.loc 1 1178 0
 516 008e 2C60     		str	r4, [r5]
 517              	.LVL58:
 518              	.L26:
1186:Middlewares/Third_Party/FreeRTOS/Source/stream_buffer.c **** /*-----------------------------------------------------------*/
 519              		.loc 1 1186 0
 520 0090 4046     		mov	r0, r8
 521 0092 BDE8F883 		pop	{r3, r4, r5, r6, r7, r8, r9, pc}
 522              		.cfi_endproc
 523              	.LFE23:
 525 0096 00BF     		.section	.text.prvReadMessageFromBuffer,"ax",%progbits
 526              		.align	2
 527              		.thumb
 528              		.thumb_func
 530              	prvReadMessageFromBuffer:
 531              	.LFB17:
 923:Middlewares/Third_Party/FreeRTOS/Source/stream_buffer.c **** size_t xOriginalTail, xReceivedLength, xNextMessageLength;
 532              		.loc 1 923 0
 533              		.cfi_startproc
ARM GAS  /tmp/ccKrWf9C.s 			page 36


 534              		@ args = 4, pretend = 0, frame = 8
 535              		@ frame_needed = 0, uses_anonymous_args = 0
 536              	.LVL59:
 537 0000 2DE9F043 		push	{r4, r5, r6, r7, r8, r9, lr}
 538              	.LCFI6:
 539              		.cfi_def_cfa_offset 28
 540              		.cfi_offset 4, -28
 541              		.cfi_offset 5, -24
 542              		.cfi_offset 6, -20
 543              		.cfi_offset 7, -16
 544              		.cfi_offset 8, -12
 545              		.cfi_offset 9, -8
 546              		.cfi_offset 14, -4
 547 0004 83B0     		sub	sp, sp, #12
 548              	.LCFI7:
 549              		.cfi_def_cfa_offset 40
 550 0006 0546     		mov	r5, r0
 551 0008 8846     		mov	r8, r1
 552 000a 1646     		mov	r6, r2
 553 000c 1C46     		mov	r4, r3
 554 000e 0A9F     		ldr	r7, [sp, #40]
 927:Middlewares/Third_Party/FreeRTOS/Source/stream_buffer.c **** 	{
 555              		.loc 1 927 0
 556 0010 77B1     		cbz	r7, .L37
 933:Middlewares/Third_Party/FreeRTOS/Source/stream_buffer.c **** 		( void ) prvReadBytesFromBuffer( pxStreamBuffer, ( uint8_t * ) &xTempNextMessageLength, xBytesToS
 557              		.loc 1 933 0
 558 0012 D0F80090 		ldr	r9, [r0]
 559              	.LVL60:
 934:Middlewares/Third_Party/FreeRTOS/Source/stream_buffer.c **** 		xNextMessageLength = ( size_t ) xTempNextMessageLength;
 560              		.loc 1 934 0
 561 0016 3A46     		mov	r2, r7
 562              	.LVL61:
 563 0018 01A9     		add	r1, sp, #4
 564              	.LVL62:
 565 001a FFF7FEFF 		bl	prvReadBytesFromBuffer
 566              	.LVL63:
 935:Middlewares/Third_Party/FreeRTOS/Source/stream_buffer.c **** 
 567              		.loc 1 935 0
 568 001e 019B     		ldr	r3, [sp, #4]
 569              	.LVL64:
 939:Middlewares/Third_Party/FreeRTOS/Source/stream_buffer.c **** 
 570              		.loc 1 939 0
 571 0020 E41B     		subs	r4, r4, r7
 572              	.LVL65:
 943:Middlewares/Third_Party/FreeRTOS/Source/stream_buffer.c **** 		{
 573              		.loc 1 943 0
 574 0022 B342     		cmp	r3, r6
 575 0024 03D9     		bls	.L38
 948:Middlewares/Third_Party/FreeRTOS/Source/stream_buffer.c **** 			xNextMessageLength = 0;
 576              		.loc 1 948 0
 577 0026 C5F80090 		str	r9, [r5]
 578              	.LVL66:
 949:Middlewares/Third_Party/FreeRTOS/Source/stream_buffer.c **** 		}
 579              		.loc 1 949 0
 580 002a 0026     		movs	r6, #0
 581              	.LVL67:
 582 002c 00E0     		b	.L37
ARM GAS  /tmp/ccKrWf9C.s 			page 37


 583              	.LVL68:
 584              	.L38:
 935:Middlewares/Third_Party/FreeRTOS/Source/stream_buffer.c **** 
 585              		.loc 1 935 0
 586 002e 1E46     		mov	r6, r3
 587              	.LVL69:
 588              	.L37:
 964:Middlewares/Third_Party/FreeRTOS/Source/stream_buffer.c **** 
 589              		.loc 1 964 0
 590 0030 2346     		mov	r3, r4
 591 0032 3246     		mov	r2, r6
 592 0034 4146     		mov	r1, r8
 593 0036 2846     		mov	r0, r5
 594 0038 FFF7FEFF 		bl	prvReadBytesFromBuffer
 595              	.LVL70:
 967:Middlewares/Third_Party/FreeRTOS/Source/stream_buffer.c **** /*-----------------------------------------------------------*/
 596              		.loc 1 967 0
 597 003c 03B0     		add	sp, sp, #12
 598              	.LCFI8:
 599              		.cfi_def_cfa_offset 28
 600              		@ sp needed
 601 003e BDE8F083 		pop	{r4, r5, r6, r7, r8, r9, pc}
 602              		.cfi_endproc
 603              	.LFE17:
 605 0042 00BF     		.section	.text.xStreamBufferGenericCreate,"ax",%progbits
 606              		.align	2
 607              		.global	xStreamBufferGenericCreate
 608              		.thumb
 609              		.thumb_func
 611              	xStreamBufferGenericCreate:
 612              	.LFB4:
 220:Middlewares/Third_Party/FreeRTOS/Source/stream_buffer.c **** 	uint8_t *pucAllocatedMemory;
 613              		.loc 1 220 0
 614              		.cfi_startproc
 615              		@ args = 0, pretend = 0, frame = 0
 616              		@ frame_needed = 0, uses_anonymous_args = 0
 617              	.LVL71:
 618 0000 F0B5     		push	{r4, r5, r6, r7, lr}
 619              	.LCFI9:
 620              		.cfi_def_cfa_offset 20
 621              		.cfi_offset 4, -20
 622              		.cfi_offset 5, -16
 623              		.cfi_offset 6, -12
 624              		.cfi_offset 7, -8
 625              		.cfi_offset 14, -4
 626 0002 83B0     		sub	sp, sp, #12
 627              	.LCFI10:
 628              		.cfi_def_cfa_offset 32
 629 0004 0C46     		mov	r4, r1
 228:Middlewares/Third_Party/FreeRTOS/Source/stream_buffer.c **** 		{
 630              		.loc 1 228 0
 631 0006 012A     		cmp	r2, #1
 632 0008 0AD1     		bne	.L41
 633              	.LVL72:
 232:Middlewares/Third_Party/FreeRTOS/Source/stream_buffer.c **** 		}
 634              		.loc 1 232 0
 635 000a 0428     		cmp	r0, #4
ARM GAS  /tmp/ccKrWf9C.s 			page 38


 636 000c 12D8     		bhi	.L49
 637              	.LBB111:
 638              	.LBB112:
 639              		.loc 2 195 0
 640              		.syntax unified
 641              	@ 195 "Middlewares/Third_Party/FreeRTOS/Source/portable/GCC/ARM_CM4F/portmacro.h" 1
 642 000e 4FF05003 			mov r3, #80												
 643 0012 83F31188 		msr basepri, r3											
 644 0016 BFF36F8F 		isb														
 645 001a BFF34F8F 		dsb														
 646              	
 647              	@ 0 "" 2
 648              	.LVL73:
 649              		.thumb
 650              		.syntax unified
 651              	.L43:
 652 001e FEE7     		b	.L43
 653              	.LVL74:
 654              	.L41:
 655              	.LBE112:
 656              	.LBE111:
 238:Middlewares/Third_Party/FreeRTOS/Source/stream_buffer.c **** 		}
 657              		.loc 1 238 0
 658 0020 50B9     		cbnz	r0, .L50
 659              	.LBB113:
 660              	.LBB114:
 661              		.loc 2 195 0
 662              		.syntax unified
 663              	@ 195 "Middlewares/Third_Party/FreeRTOS/Source/portable/GCC/ARM_CM4F/portmacro.h" 1
 664 0022 4FF05003 			mov r3, #80												
 665 0026 83F31188 		msr basepri, r3											
 666 002a BFF36F8F 		isb														
 667 002e BFF34F8F 		dsb														
 668              	
 669              	@ 0 "" 2
 670              	.LVL75:
 671              		.thumb
 672              		.syntax unified
 673              	.L44:
 674 0032 FEE7     		b	.L44
 675              	.LVL76:
 676              	.L49:
 677              	.LBE114:
 678              	.LBE113:
 231:Middlewares/Third_Party/FreeRTOS/Source/stream_buffer.c **** 			configASSERT( xBufferSizeBytes > sbBYTES_TO_STORE_MESSAGE_LENGTH );
 679              		.loc 1 231 0
 680 0034 0126     		movs	r6, #1
 681 0036 00E0     		b	.L42
 682              	.LVL77:
 683              	.L50:
 237:Middlewares/Third_Party/FreeRTOS/Source/stream_buffer.c **** 			configASSERT( xBufferSizeBytes > 0 );
 684              		.loc 1 237 0
 685 0038 0026     		movs	r6, #0
 686              	.LVL78:
 687              	.L42:
 240:Middlewares/Third_Party/FreeRTOS/Source/stream_buffer.c **** 
 688              		.loc 1 240 0
ARM GAS  /tmp/ccKrWf9C.s 			page 39


 689 003a A042     		cmp	r0, r4
 690 003c 08D2     		bcs	.L45
 691              	.LBB115:
 692              	.LBB116:
 693              		.loc 2 195 0
 694              		.syntax unified
 695              	@ 195 "Middlewares/Third_Party/FreeRTOS/Source/portable/GCC/ARM_CM4F/portmacro.h" 1
 696 003e 4FF05003 			mov r3, #80												
 697 0042 83F31188 		msr basepri, r3											
 698 0046 BFF36F8F 		isb														
 699 004a BFF34F8F 		dsb														
 700              	
 701              	@ 0 "" 2
 702              	.LVL79:
 703              		.thumb
 704              		.syntax unified
 705              	.L46:
 706 004e FEE7     		b	.L46
 707              	.L45:
 708              	.LBE116:
 709              	.LBE115:
 244:Middlewares/Third_Party/FreeRTOS/Source/stream_buffer.c **** 		{
 710              		.loc 1 244 0
 711 0050 04B9     		cbnz	r4, .L47
 246:Middlewares/Third_Party/FreeRTOS/Source/stream_buffer.c **** 		}
 712              		.loc 1 246 0
 713 0052 0124     		movs	r4, #1
 714              	.L47:
 715              	.LVL80:
 257:Middlewares/Third_Party/FreeRTOS/Source/stream_buffer.c **** 		pucAllocatedMemory = ( uint8_t * ) pvPortMalloc( xBufferSizeBytes + sizeof( StreamBuffer_t ) ); /
 716              		.loc 1 257 0
 717 0054 471C     		adds	r7, r0, #1
 718              	.LVL81:
 258:Middlewares/Third_Party/FreeRTOS/Source/stream_buffer.c **** 
 719              		.loc 1 258 0
 720 0056 2530     		adds	r0, r0, #37
 721 0058 FFF7FEFF 		bl	pvPortMalloc
 722              	.LVL82:
 260:Middlewares/Third_Party/FreeRTOS/Source/stream_buffer.c **** 		{
 723              		.loc 1 260 0
 724 005c 0546     		mov	r5, r0
 725 005e 30B1     		cbz	r0, .L48
 262:Middlewares/Third_Party/FreeRTOS/Source/stream_buffer.c **** 										   pucAllocatedMemory + sizeof( StreamBuffer_t ),  /* Storage area follows. */ /*lint !e9
 726              		.loc 1 262 0
 727 0060 0096     		str	r6, [sp]
 728 0062 2346     		mov	r3, r4
 729 0064 3A46     		mov	r2, r7
 730 0066 00F12401 		add	r1, r0, #36
 731 006a FFF7FEFF 		bl	prvInitialiseNewStreamBuffer
 732              	.LVL83:
 733              	.L48:
 276:Middlewares/Third_Party/FreeRTOS/Source/stream_buffer.c **** 
 734              		.loc 1 276 0
 735 006e 2846     		mov	r0, r5
 736 0070 03B0     		add	sp, sp, #12
 737              	.LCFI11:
 738              		.cfi_def_cfa_offset 20
ARM GAS  /tmp/ccKrWf9C.s 			page 40


 739              		@ sp needed
 740 0072 F0BD     		pop	{r4, r5, r6, r7, pc}
 741              		.cfi_endproc
 742              	.LFE4:
 744              		.section	.text.xStreamBufferGenericCreateStatic,"ax",%progbits
 745              		.align	2
 746              		.global	xStreamBufferGenericCreateStatic
 747              		.thumb
 748              		.thumb_func
 750              	xStreamBufferGenericCreateStatic:
 751              	.LFB5:
 288:Middlewares/Third_Party/FreeRTOS/Source/stream_buffer.c **** 	StreamBuffer_t * const pxStreamBuffer = ( StreamBuffer_t * ) pxStaticStreamBuffer; /*lint !e740 !e
 752              		.loc 1 288 0
 753              		.cfi_startproc
 754              		@ args = 4, pretend = 0, frame = 8
 755              		@ frame_needed = 0, uses_anonymous_args = 0
 756              	.LVL84:
 757 0000 30B5     		push	{r4, r5, lr}
 758              	.LCFI12:
 759              		.cfi_def_cfa_offset 12
 760              		.cfi_offset 4, -12
 761              		.cfi_offset 5, -8
 762              		.cfi_offset 14, -4
 763 0002 85B0     		sub	sp, sp, #20
 764              	.LCFI13:
 765              		.cfi_def_cfa_offset 32
 766 0004 089C     		ldr	r4, [sp, #32]
 767              	.LVL85:
 293:Middlewares/Third_Party/FreeRTOS/Source/stream_buffer.c **** 		configASSERT( pxStaticStreamBuffer );
 768              		.loc 1 293 0
 769 0006 43B9     		cbnz	r3, .L54
 770              	.LBB117:
 771              	.LBB118:
 772              		.loc 2 195 0
 773              		.syntax unified
 774              	@ 195 "Middlewares/Third_Party/FreeRTOS/Source/portable/GCC/ARM_CM4F/portmacro.h" 1
 775 0008 4FF05003 			mov r3, #80												
 776 000c 83F31188 		msr basepri, r3											
 777 0010 BFF36F8F 		isb														
 778 0014 BFF34F8F 		dsb														
 779              	
 780              	@ 0 "" 2
 781              	.LVL86:
 782              		.thumb
 783              		.syntax unified
 784              	.L55:
 785 0018 FEE7     		b	.L55
 786              	.LVL87:
 787              	.L54:
 788 001a 1D46     		mov	r5, r3
 789              	.LBE118:
 790              	.LBE117:
 294:Middlewares/Third_Party/FreeRTOS/Source/stream_buffer.c **** 		configASSERT( xTriggerLevelBytes <= xBufferSizeBytes );
 791              		.loc 1 294 0
 792 001c 44B9     		cbnz	r4, .L56
 793              	.LBB119:
 794              	.LBB120:
ARM GAS  /tmp/ccKrWf9C.s 			page 41


 795              		.loc 2 195 0
 796              		.syntax unified
 797              	@ 195 "Middlewares/Third_Party/FreeRTOS/Source/portable/GCC/ARM_CM4F/portmacro.h" 1
 798 001e 4FF05003 			mov r3, #80												
 799 0022 83F31188 		msr basepri, r3											
 800 0026 BFF36F8F 		isb														
 801 002a BFF34F8F 		dsb														
 802              	
 803              	@ 0 "" 2
 804              	.LVL88:
 805              		.thumb
 806              		.syntax unified
 807              	.L57:
 808 002e FEE7     		b	.L57
 809              	.LVL89:
 810              	.L56:
 811              	.LBE120:
 812              	.LBE119:
 295:Middlewares/Third_Party/FreeRTOS/Source/stream_buffer.c **** 
 813              		.loc 1 295 0
 814 0030 8142     		cmp	r1, r0
 815 0032 08D9     		bls	.L58
 816              	.LBB121:
 817              	.LBB122:
 818              		.loc 2 195 0
 819              		.syntax unified
 820              	@ 195 "Middlewares/Third_Party/FreeRTOS/Source/portable/GCC/ARM_CM4F/portmacro.h" 1
 821 0034 4FF05003 			mov r3, #80												
 822 0038 83F31188 		msr basepri, r3											
 823 003c BFF36F8F 		isb														
 824 0040 BFF34F8F 		dsb														
 825              	
 826              	@ 0 "" 2
 827              	.LVL90:
 828              		.thumb
 829              		.syntax unified
 830              	.L59:
 831 0044 FEE7     		b	.L59
 832              	.LVL91:
 833              	.L58:
 834              	.LBE122:
 835              	.LBE121:
 299:Middlewares/Third_Party/FreeRTOS/Source/stream_buffer.c **** 		{
 836              		.loc 1 299 0
 837 0046 01B9     		cbnz	r1, .L60
 301:Middlewares/Third_Party/FreeRTOS/Source/stream_buffer.c **** 		}
 838              		.loc 1 301 0
 839 0048 0121     		movs	r1, #1
 840              	.LVL92:
 841              	.L60:
 304:Middlewares/Third_Party/FreeRTOS/Source/stream_buffer.c **** 		{
 842              		.loc 1 304 0
 843 004a 0AB1     		cbz	r2, .L68
 307:Middlewares/Third_Party/FreeRTOS/Source/stream_buffer.c **** 		}
 844              		.loc 1 307 0
 845 004c 0323     		movs	r3, #3
 846              	.LVL93:
ARM GAS  /tmp/ccKrWf9C.s 			page 42


 847 004e 00E0     		b	.L61
 848              	.LVL94:
 849              	.L68:
 312:Middlewares/Third_Party/FreeRTOS/Source/stream_buffer.c **** 		}
 850              		.loc 1 312 0
 851 0050 0223     		movs	r3, #2
 852              	.LVL95:
 853              	.L61:
 319:Middlewares/Third_Party/FreeRTOS/Source/stream_buffer.c **** 
 854              		.loc 1 319 0
 855 0052 0428     		cmp	r0, #4
 856 0054 08D8     		bhi	.L62
 857              	.LBB123:
 858              	.LBB124:
 859              		.loc 2 195 0
 860              		.syntax unified
 861              	@ 195 "Middlewares/Third_Party/FreeRTOS/Source/portable/GCC/ARM_CM4F/portmacro.h" 1
 862 0056 4FF05003 			mov r3, #80												
 863 005a 83F31188 		msr basepri, r3											
 864 005e BFF36F8F 		isb														
 865 0062 BFF34F8F 		dsb														
 866              	
 867              	@ 0 "" 2
 868              	.LVL96:
 869              		.thumb
 870              		.syntax unified
 871              	.L63:
 872 0066 FEE7     		b	.L63
 873              	.LVL97:
 874              	.L62:
 875              	.LBE124:
 876              	.LBE123:
 877              	.LBB125:
 326:Middlewares/Third_Party/FreeRTOS/Source/stream_buffer.c **** 			configASSERT( xSize == sizeof( StreamBuffer_t ) );
 878              		.loc 1 326 0
 879 0068 2422     		movs	r2, #36
 880              	.LVL98:
 881 006a 0392     		str	r2, [sp, #12]
 327:Middlewares/Third_Party/FreeRTOS/Source/stream_buffer.c **** 		} /*lint !e529 xSize is referenced is configASSERT() is defined. */
 882              		.loc 1 327 0
 883 006c 039A     		ldr	r2, [sp, #12]
 884 006e 242A     		cmp	r2, #36
 885 0070 08D0     		beq	.L64
 886              	.LBB126:
 887              	.LBB127:
 888              		.loc 2 195 0
 889              		.syntax unified
 890              	@ 195 "Middlewares/Third_Party/FreeRTOS/Source/portable/GCC/ARM_CM4F/portmacro.h" 1
 891 0072 4FF05003 			mov r3, #80												
 892 0076 83F31188 		msr basepri, r3											
 893 007a BFF36F8F 		isb														
 894 007e BFF34F8F 		dsb														
 895              	
 896              	@ 0 "" 2
 897              	.LVL99:
 898              		.thumb
 899              		.syntax unified
ARM GAS  /tmp/ccKrWf9C.s 			page 43


 900              	.L65:
 901 0082 FEE7     		b	.L65
 902              	.LVL100:
 903              	.L64:
 904              	.LBE127:
 905              	.LBE126:
 906              	.LBE125:
 331:Middlewares/Third_Party/FreeRTOS/Source/stream_buffer.c **** 		{
 907              		.loc 1 331 0
 908 0084 6DB1     		cbz	r5, .L69
 331:Middlewares/Third_Party/FreeRTOS/Source/stream_buffer.c **** 		{
 909              		.loc 1 331 0 is_stmt 0 discriminator 1
 910 0086 74B1     		cbz	r4, .L70
 333:Middlewares/Third_Party/FreeRTOS/Source/stream_buffer.c **** 										  pucStreamBufferStorageArea,
 911              		.loc 1 333 0 is_stmt 1
 912 0088 0093     		str	r3, [sp]
 913 008a 0B46     		mov	r3, r1
 914              	.LVL101:
 915 008c 0246     		mov	r2, r0
 916 008e 2946     		mov	r1, r5
 917              	.LVL102:
 918 0090 2046     		mov	r0, r4
 919              	.LVL103:
 920 0092 FFF7FEFF 		bl	prvInitialiseNewStreamBuffer
 921              	.LVL104:
 341:Middlewares/Third_Party/FreeRTOS/Source/stream_buffer.c **** 
 922              		.loc 1 341 0
 923 0096 237F     		ldrb	r3, [r4, #28]	@ zero_extendqisi2
 924 0098 43F00203 		orr	r3, r3, #2
 925 009c 2377     		strb	r3, [r4, #28]
 926              	.LVL105:
 345:Middlewares/Third_Party/FreeRTOS/Source/stream_buffer.c **** 		}
 927              		.loc 1 345 0
 928 009e 2046     		mov	r0, r4
 929 00a0 02E0     		b	.L66
 930              	.LVL106:
 931              	.L69:
 349:Middlewares/Third_Party/FreeRTOS/Source/stream_buffer.c **** 			traceSTREAM_BUFFER_CREATE_STATIC_FAILED( xReturn, xIsMessageBuffer );
 932              		.loc 1 349 0
 933 00a2 0020     		movs	r0, #0
 934              	.LVL107:
 935 00a4 00E0     		b	.L66
 936              	.LVL108:
 937              	.L70:
 938 00a6 0020     		movs	r0, #0
 939              	.LVL109:
 940              	.L66:
 354:Middlewares/Third_Party/FreeRTOS/Source/stream_buffer.c **** 
 941              		.loc 1 354 0
 942 00a8 05B0     		add	sp, sp, #20
 943              	.LCFI14:
 944              		.cfi_def_cfa_offset 12
 945              		@ sp needed
 946 00aa 30BD     		pop	{r4, r5, pc}
 947              		.cfi_endproc
 948              	.LFE5:
 950              		.section	.text.vStreamBufferDelete,"ax",%progbits
ARM GAS  /tmp/ccKrWf9C.s 			page 44


 951              		.align	2
 952              		.global	vStreamBufferDelete
 953              		.thumb
 954              		.thumb_func
 956              	vStreamBufferDelete:
 957              	.LFB6:
 360:Middlewares/Third_Party/FreeRTOS/Source/stream_buffer.c **** StreamBuffer_t * pxStreamBuffer = xStreamBuffer;
 958              		.loc 1 360 0
 959              		.cfi_startproc
 960              		@ args = 0, pretend = 0, frame = 0
 961              		@ frame_needed = 0, uses_anonymous_args = 0
 962              	.LVL110:
 963 0000 08B5     		push	{r3, lr}
 964              	.LCFI15:
 965              		.cfi_def_cfa_offset 8
 966              		.cfi_offset 3, -8
 967              		.cfi_offset 14, -4
 968              	.LVL111:
 363:Middlewares/Third_Party/FreeRTOS/Source/stream_buffer.c **** 
 969              		.loc 1 363 0
 970 0002 40B9     		cbnz	r0, .L73
 971              	.LBB128:
 972              	.LBB129:
 973              		.loc 2 195 0
 974              		.syntax unified
 975              	@ 195 "Middlewares/Third_Party/FreeRTOS/Source/portable/GCC/ARM_CM4F/portmacro.h" 1
 976 0004 4FF05003 			mov r3, #80												
 977 0008 83F31188 		msr basepri, r3											
 978 000c BFF36F8F 		isb														
 979 0010 BFF34F8F 		dsb														
 980              	
 981              	@ 0 "" 2
 982              	.LVL112:
 983              		.thumb
 984              		.syntax unified
 985              	.L74:
 986 0014 FEE7     		b	.L74
 987              	.L73:
 988              	.LBE129:
 989              	.LBE128:
 367:Middlewares/Third_Party/FreeRTOS/Source/stream_buffer.c **** 	{
 990              		.loc 1 367 0
 991 0016 037F     		ldrb	r3, [r0, #28]	@ zero_extendqisi2
 992 0018 13F0020F 		tst	r3, #2
 993 001c 02D1     		bne	.L75
 373:Middlewares/Third_Party/FreeRTOS/Source/stream_buffer.c **** 		}
 994              		.loc 1 373 0
 995 001e FFF7FEFF 		bl	vPortFree
 996              	.LVL113:
 997 0022 08BD     		pop	{r3, pc}
 998              	.LVL114:
 999              	.L75:
 387:Middlewares/Third_Party/FreeRTOS/Source/stream_buffer.c **** 	}
 1000              		.loc 1 387 0
 1001 0024 2422     		movs	r2, #36
 1002 0026 0021     		movs	r1, #0
 1003 0028 FFF7FEFF 		bl	memset
ARM GAS  /tmp/ccKrWf9C.s 			page 45


 1004              	.LVL115:
 1005 002c 08BD     		pop	{r3, pc}
 1006              		.cfi_endproc
 1007              	.LFE6:
 1009 002e 00BF     		.section	.text.xStreamBufferReset,"ax",%progbits
 1010              		.align	2
 1011              		.global	xStreamBufferReset
 1012              		.thumb
 1013              		.thumb_func
 1015              	xStreamBufferReset:
 1016              	.LFB7:
 393:Middlewares/Third_Party/FreeRTOS/Source/stream_buffer.c **** StreamBuffer_t * const pxStreamBuffer = xStreamBuffer;
 1017              		.loc 1 393 0
 1018              		.cfi_startproc
 1019              		@ args = 0, pretend = 0, frame = 0
 1020              		@ frame_needed = 0, uses_anonymous_args = 0
 1021              	.LVL116:
 401:Middlewares/Third_Party/FreeRTOS/Source/stream_buffer.c **** 
 1022              		.loc 1 401 0
 1023 0000 40B9     		cbnz	r0, .L79
 1024              	.LBB130:
 1025              	.LBB131:
 1026              		.loc 2 195 0
 1027              		.syntax unified
 1028              	@ 195 "Middlewares/Third_Party/FreeRTOS/Source/portable/GCC/ARM_CM4F/portmacro.h" 1
 1029 0002 4FF05003 			mov r3, #80												
 1030 0006 83F31188 		msr basepri, r3											
 1031 000a BFF36F8F 		isb														
 1032 000e BFF34F8F 		dsb														
 1033              	
 1034              	@ 0 "" 2
 1035              	.LVL117:
 1036              		.thumb
 1037              		.syntax unified
 1038              	.L80:
 1039 0012 FEE7     		b	.L80
 1040              	.L79:
 1041              	.LBE131:
 1042              	.LBE130:
 393:Middlewares/Third_Party/FreeRTOS/Source/stream_buffer.c **** StreamBuffer_t * const pxStreamBuffer = xStreamBuffer;
 1043              		.loc 1 393 0
 1044 0014 30B5     		push	{r4, r5, lr}
 1045              	.LCFI16:
 1046              		.cfi_def_cfa_offset 12
 1047              		.cfi_offset 4, -12
 1048              		.cfi_offset 5, -8
 1049              		.cfi_offset 14, -4
 1050 0016 83B0     		sub	sp, sp, #12
 1051              	.LCFI17:
 1052              		.cfi_def_cfa_offset 24
 1053 0018 0446     		mov	r4, r0
 407:Middlewares/Third_Party/FreeRTOS/Source/stream_buffer.c **** 	}
 1054              		.loc 1 407 0
 1055 001a 056A     		ldr	r5, [r0, #32]
 1056              	.LVL118:
 412:Middlewares/Third_Party/FreeRTOS/Source/stream_buffer.c **** 	{
 1057              		.loc 1 412 0
ARM GAS  /tmp/ccKrWf9C.s 			page 46


 1058 001c FFF7FEFF 		bl	vPortEnterCritical
 1059              	.LVL119:
 414:Middlewares/Third_Party/FreeRTOS/Source/stream_buffer.c **** 		{
 1060              		.loc 1 414 0
 1061 0020 2369     		ldr	r3, [r4, #16]
 1062 0022 63B9     		cbnz	r3, .L82
 416:Middlewares/Third_Party/FreeRTOS/Source/stream_buffer.c **** 			{
 1063              		.loc 1 416 0
 1064 0024 6369     		ldr	r3, [r4, #20]
 1065 0026 63B9     		cbnz	r3, .L83
 418:Middlewares/Third_Party/FreeRTOS/Source/stream_buffer.c **** 											  pxStreamBuffer->pucBuffer,
 1066              		.loc 1 418 0
 1067 0028 E368     		ldr	r3, [r4, #12]
 1068 002a A268     		ldr	r2, [r4, #8]
 1069 002c A169     		ldr	r1, [r4, #24]
 1070 002e 207F     		ldrb	r0, [r4, #28]	@ zero_extendqisi2
 1071 0030 0090     		str	r0, [sp]
 1072 0032 2046     		mov	r0, r4
 1073 0034 FFF7FEFF 		bl	prvInitialiseNewStreamBuffer
 1074              	.LVL120:
 427:Middlewares/Third_Party/FreeRTOS/Source/stream_buffer.c **** 				}
 1075              		.loc 1 427 0
 1076 0038 2562     		str	r5, [r4, #32]
 423:Middlewares/Third_Party/FreeRTOS/Source/stream_buffer.c **** 
 1077              		.loc 1 423 0
 1078 003a 0124     		movs	r4, #1
 1079              	.LVL121:
 1080 003c 02E0     		b	.L81
 1081              	.LVL122:
 1082              	.L82:
 395:Middlewares/Third_Party/FreeRTOS/Source/stream_buffer.c **** 
 1083              		.loc 1 395 0
 1084 003e 0024     		movs	r4, #0
 1085              	.LVL123:
 1086 0040 00E0     		b	.L81
 1087              	.LVL124:
 1088              	.L83:
 1089 0042 0024     		movs	r4, #0
 1090              	.LVL125:
 1091              	.L81:
 435:Middlewares/Third_Party/FreeRTOS/Source/stream_buffer.c **** 
 1092              		.loc 1 435 0
 1093 0044 FFF7FEFF 		bl	vPortExitCritical
 1094              	.LVL126:
 438:Middlewares/Third_Party/FreeRTOS/Source/stream_buffer.c **** /*-----------------------------------------------------------*/
 1095              		.loc 1 438 0
 1096 0048 2046     		mov	r0, r4
 1097 004a 03B0     		add	sp, sp, #12
 1098              	.LCFI18:
 1099              		.cfi_def_cfa_offset 12
 1100              		@ sp needed
 1101 004c 30BD     		pop	{r4, r5, pc}
 1102              		.cfi_endproc
 1103              	.LFE7:
 1105 004e 00BF     		.section	.text.xStreamBufferSetTriggerLevel,"ax",%progbits
 1106              		.align	2
 1107              		.global	xStreamBufferSetTriggerLevel
ARM GAS  /tmp/ccKrWf9C.s 			page 47


 1108              		.thumb
 1109              		.thumb_func
 1111              	xStreamBufferSetTriggerLevel:
 1112              	.LFB8:
 442:Middlewares/Third_Party/FreeRTOS/Source/stream_buffer.c **** StreamBuffer_t * const pxStreamBuffer = xStreamBuffer;
 1113              		.loc 1 442 0
 1114              		.cfi_startproc
 1115              		@ args = 0, pretend = 0, frame = 0
 1116              		@ frame_needed = 0, uses_anonymous_args = 0
 1117              		@ link register save eliminated.
 1118              	.LVL127:
 446:Middlewares/Third_Party/FreeRTOS/Source/stream_buffer.c **** 
 1119              		.loc 1 446 0
 1120 0000 0346     		mov	r3, r0
 1121 0002 40B9     		cbnz	r0, .L86
 1122              	.LBB132:
 1123              	.LBB133:
 1124              		.loc 2 195 0
 1125              		.syntax unified
 1126              	@ 195 "Middlewares/Third_Party/FreeRTOS/Source/portable/GCC/ARM_CM4F/portmacro.h" 1
 1127 0004 4FF05003 			mov r3, #80												
 1128 0008 83F31188 		msr basepri, r3											
 1129 000c BFF36F8F 		isb														
 1130 0010 BFF34F8F 		dsb														
 1131              	
 1132              	@ 0 "" 2
 1133              	.LVL128:
 1134              		.thumb
 1135              		.syntax unified
 1136              	.L87:
 1137 0014 FEE7     		b	.L87
 1138              	.L86:
 1139              	.LBE133:
 1140              	.LBE132:
 449:Middlewares/Third_Party/FreeRTOS/Source/stream_buffer.c **** 	{
 1141              		.loc 1 449 0
 1142 0016 01B9     		cbnz	r1, .L88
 451:Middlewares/Third_Party/FreeRTOS/Source/stream_buffer.c **** 	}
 1143              		.loc 1 451 0
 1144 0018 0121     		movs	r1, #1
 1145              	.LVL129:
 1146              	.L88:
 456:Middlewares/Third_Party/FreeRTOS/Source/stream_buffer.c **** 	{
 1147              		.loc 1 456 0
 1148 001a 9A68     		ldr	r2, [r3, #8]
 1149 001c 9142     		cmp	r1, r2
 1150 001e 02D8     		bhi	.L91
 458:Middlewares/Third_Party/FreeRTOS/Source/stream_buffer.c **** 		xReturn = pdPASS;
 1151              		.loc 1 458 0
 1152 0020 D960     		str	r1, [r3, #12]
 1153              	.LVL130:
 459:Middlewares/Third_Party/FreeRTOS/Source/stream_buffer.c **** 	}
 1154              		.loc 1 459 0
 1155 0022 0120     		movs	r0, #1
 1156              	.LVL131:
 1157 0024 7047     		bx	lr
 1158              	.LVL132:
ARM GAS  /tmp/ccKrWf9C.s 			page 48


 1159              	.L91:
 463:Middlewares/Third_Party/FreeRTOS/Source/stream_buffer.c **** 	}
 1160              		.loc 1 463 0
 1161 0026 0020     		movs	r0, #0
 1162              	.LVL133:
 467:Middlewares/Third_Party/FreeRTOS/Source/stream_buffer.c **** /*-----------------------------------------------------------*/
 1163              		.loc 1 467 0
 1164 0028 7047     		bx	lr
 1165              		.cfi_endproc
 1166              	.LFE8:
 1168 002a 00BF     		.section	.text.xStreamBufferSpacesAvailable,"ax",%progbits
 1169              		.align	2
 1170              		.global	xStreamBufferSpacesAvailable
 1171              		.thumb
 1172              		.thumb_func
 1174              	xStreamBufferSpacesAvailable:
 1175              	.LFB9:
 471:Middlewares/Third_Party/FreeRTOS/Source/stream_buffer.c **** const StreamBuffer_t * const pxStreamBuffer = xStreamBuffer;
 1176              		.loc 1 471 0
 1177              		.cfi_startproc
 1178              		@ args = 0, pretend = 0, frame = 0
 1179              		@ frame_needed = 0, uses_anonymous_args = 0
 1180              		@ link register save eliminated.
 1181              	.LVL134:
 475:Middlewares/Third_Party/FreeRTOS/Source/stream_buffer.c **** 
 1182              		.loc 1 475 0
 1183 0000 40B9     		cbnz	r0, .L93
 1184              	.LBB134:
 1185              	.LBB135:
 1186              		.loc 2 195 0
 1187              		.syntax unified
 1188              	@ 195 "Middlewares/Third_Party/FreeRTOS/Source/portable/GCC/ARM_CM4F/portmacro.h" 1
 1189 0002 4FF05003 			mov r3, #80												
 1190 0006 83F31188 		msr basepri, r3											
 1191 000a BFF36F8F 		isb														
 1192 000e BFF34F8F 		dsb														
 1193              	
 1194              	@ 0 "" 2
 1195              	.LVL135:
 1196              		.thumb
 1197              		.syntax unified
 1198              	.L94:
 1199 0012 FEE7     		b	.L94
 1200              	.L93:
 1201              	.LBE135:
 1202              	.LBE134:
 477:Middlewares/Third_Party/FreeRTOS/Source/stream_buffer.c **** 	xSpace -= pxStreamBuffer->xHead;
 1203              		.loc 1 477 0
 1204 0014 8268     		ldr	r2, [r0, #8]
 1205 0016 0368     		ldr	r3, [r0]
 1206 0018 1344     		add	r3, r3, r2
 1207              	.LVL136:
 478:Middlewares/Third_Party/FreeRTOS/Source/stream_buffer.c **** 	xSpace -= ( size_t ) 1;
 1208              		.loc 1 478 0
 1209 001a 4068     		ldr	r0, [r0, #4]
 1210              	.LVL137:
 1211 001c 181A     		subs	r0, r3, r0
ARM GAS  /tmp/ccKrWf9C.s 			page 49


 1212              	.LVL138:
 479:Middlewares/Third_Party/FreeRTOS/Source/stream_buffer.c **** 
 1213              		.loc 1 479 0
 1214 001e 0138     		subs	r0, r0, #1
 1215              	.LVL139:
 481:Middlewares/Third_Party/FreeRTOS/Source/stream_buffer.c **** 	{
 1216              		.loc 1 481 0
 1217 0020 8242     		cmp	r2, r0
 1218 0022 00D8     		bhi	.L95
 483:Middlewares/Third_Party/FreeRTOS/Source/stream_buffer.c **** 	}
 1219              		.loc 1 483 0
 1220 0024 801A     		subs	r0, r0, r2
 1221              	.LVL140:
 1222              	.L95:
 491:Middlewares/Third_Party/FreeRTOS/Source/stream_buffer.c **** /*-----------------------------------------------------------*/
 1223              		.loc 1 491 0
 1224 0026 7047     		bx	lr
 1225              		.cfi_endproc
 1226              	.LFE9:
 1228              		.section	.text.xStreamBufferBytesAvailable,"ax",%progbits
 1229              		.align	2
 1230              		.global	xStreamBufferBytesAvailable
 1231              		.thumb
 1232              		.thumb_func
 1234              	xStreamBufferBytesAvailable:
 1235              	.LFB10:
 495:Middlewares/Third_Party/FreeRTOS/Source/stream_buffer.c **** const StreamBuffer_t * const pxStreamBuffer = xStreamBuffer;
 1236              		.loc 1 495 0
 1237              		.cfi_startproc
 1238              		@ args = 0, pretend = 0, frame = 0
 1239              		@ frame_needed = 0, uses_anonymous_args = 0
 1240              	.LVL141:
 1241 0000 08B5     		push	{r3, lr}
 1242              	.LCFI19:
 1243              		.cfi_def_cfa_offset 8
 1244              		.cfi_offset 3, -8
 1245              		.cfi_offset 14, -4
 1246              	.LVL142:
 499:Middlewares/Third_Party/FreeRTOS/Source/stream_buffer.c **** 
 1247              		.loc 1 499 0
 1248 0002 40B9     		cbnz	r0, .L97
 1249              	.LBB136:
 1250              	.LBB137:
 1251              		.loc 2 195 0
 1252              		.syntax unified
 1253              	@ 195 "Middlewares/Third_Party/FreeRTOS/Source/portable/GCC/ARM_CM4F/portmacro.h" 1
 1254 0004 4FF05003 			mov r3, #80												
 1255 0008 83F31188 		msr basepri, r3											
 1256 000c BFF36F8F 		isb														
 1257 0010 BFF34F8F 		dsb														
 1258              	
 1259              	@ 0 "" 2
 1260              	.LVL143:
 1261              		.thumb
 1262              		.syntax unified
 1263              	.L98:
 1264 0014 FEE7     		b	.L98
ARM GAS  /tmp/ccKrWf9C.s 			page 50


 1265              	.L97:
 1266              	.LBE137:
 1267              	.LBE136:
 501:Middlewares/Third_Party/FreeRTOS/Source/stream_buffer.c **** 	return xReturn;
 1268              		.loc 1 501 0
 1269 0016 FFF7FEFF 		bl	prvBytesInBuffer
 1270              	.LVL144:
 503:Middlewares/Third_Party/FreeRTOS/Source/stream_buffer.c **** /*-----------------------------------------------------------*/
 1271              		.loc 1 503 0
 1272 001a 08BD     		pop	{r3, pc}
 1273              		.cfi_endproc
 1274              	.LFE10:
 1276              		.section	.text.xStreamBufferSend,"ax",%progbits
 1277              		.align	2
 1278              		.global	xStreamBufferSend
 1279              		.thumb
 1280              		.thumb_func
 1282              	xStreamBufferSend:
 1283              	.LFB11:
 510:Middlewares/Third_Party/FreeRTOS/Source/stream_buffer.c **** StreamBuffer_t * const pxStreamBuffer = xStreamBuffer;
 1284              		.loc 1 510 0
 1285              		.cfi_startproc
 1286              		@ args = 0, pretend = 0, frame = 16
 1287              		@ frame_needed = 0, uses_anonymous_args = 0
 1288              	.LVL145:
 1289 0000 2DE9F043 		push	{r4, r5, r6, r7, r8, r9, lr}
 1290              	.LCFI20:
 1291              		.cfi_def_cfa_offset 28
 1292              		.cfi_offset 4, -28
 1293              		.cfi_offset 5, -24
 1294              		.cfi_offset 6, -20
 1295              		.cfi_offset 7, -16
 1296              		.cfi_offset 8, -12
 1297              		.cfi_offset 9, -8
 1298              		.cfi_offset 14, -4
 1299 0004 87B0     		sub	sp, sp, #28
 1300              	.LCFI21:
 1301              		.cfi_def_cfa_offset 56
 1302 0006 0393     		str	r3, [sp, #12]
 1303              	.LVL146:
 516:Middlewares/Third_Party/FreeRTOS/Source/stream_buffer.c **** 	configASSERT( pxStreamBuffer );
 1304              		.loc 1 516 0
 1305 0008 41B9     		cbnz	r1, .L101
 1306              	.LBB138:
 1307              	.LBB139:
 1308              		.loc 2 195 0
 1309              		.syntax unified
 1310              	@ 195 "Middlewares/Third_Party/FreeRTOS/Source/portable/GCC/ARM_CM4F/portmacro.h" 1
 1311 000a 4FF05003 			mov r3, #80												
 1312 000e 83F31188 		msr basepri, r3											
 1313 0012 BFF36F8F 		isb														
 1314 0016 BFF34F8F 		dsb														
 1315              	
 1316              	@ 0 "" 2
 1317              	.LVL147:
 1318              		.thumb
 1319              		.syntax unified
ARM GAS  /tmp/ccKrWf9C.s 			page 51


 1320              	.L102:
 1321 001a FEE7     		b	.L102
 1322              	.LVL148:
 1323              	.L101:
 1324 001c 8846     		mov	r8, r1
 1325              	.LBE139:
 1326              	.LBE138:
 517:Middlewares/Third_Party/FreeRTOS/Source/stream_buffer.c **** 
 1327              		.loc 1 517 0
 1328 001e 40B9     		cbnz	r0, .L103
 1329              	.LBB140:
 1330              	.LBB141:
 1331              		.loc 2 195 0
 1332              		.syntax unified
 1333              	@ 195 "Middlewares/Third_Party/FreeRTOS/Source/portable/GCC/ARM_CM4F/portmacro.h" 1
 1334 0020 4FF05003 			mov r3, #80												
 1335 0024 83F31188 		msr basepri, r3											
 1336 0028 BFF36F8F 		isb														
 1337 002c BFF34F8F 		dsb														
 1338              	
 1339              	@ 0 "" 2
 1340              	.LVL149:
 1341              		.thumb
 1342              		.syntax unified
 1343              	.L104:
 1344 0030 FEE7     		b	.L104
 1345              	.LVL150:
 1346              	.L103:
 1347              	.LBE141:
 1348              	.LBE140:
 523:Middlewares/Third_Party/FreeRTOS/Source/stream_buffer.c **** 	{
 1349              		.loc 1 523 0
 1350 0032 037F     		ldrb	r3, [r0, #28]	@ zero_extendqisi2
 1351              	.LVL151:
 1352 0034 13F0010F 		tst	r3, #1
 1353 0038 0BD0     		beq	.L115
 525:Middlewares/Third_Party/FreeRTOS/Source/stream_buffer.c **** 
 1354              		.loc 1 525 0
 1355 003a 171D     		adds	r7, r2, #4
 1356              	.LVL152:
 528:Middlewares/Third_Party/FreeRTOS/Source/stream_buffer.c **** 	}
 1357              		.loc 1 528 0
 1358 003c BA42     		cmp	r2, r7
 1359 003e 09D3     		bcc	.L105
 1360              	.LBB142:
 1361              	.LBB143:
 1362              		.loc 2 195 0
 1363              		.syntax unified
 1364              	@ 195 "Middlewares/Third_Party/FreeRTOS/Source/portable/GCC/ARM_CM4F/portmacro.h" 1
 1365 0040 4FF05003 			mov r3, #80												
 1366 0044 83F31188 		msr basepri, r3											
 1367 0048 BFF36F8F 		isb														
 1368 004c BFF34F8F 		dsb														
 1369              	
 1370              	@ 0 "" 2
 1371              	.LVL153:
 1372              		.thumb
ARM GAS  /tmp/ccKrWf9C.s 			page 52


 1373              		.syntax unified
 1374              	.L106:
 1375 0050 FEE7     		b	.L106
 1376              	.LVL154:
 1377              	.L115:
 1378              	.LBE143:
 1379              	.LBE142:
 513:Middlewares/Third_Party/FreeRTOS/Source/stream_buffer.c **** TimeOut_t xTimeOut;
 1380              		.loc 1 513 0
 1381 0052 1746     		mov	r7, r2
 1382              	.LVL155:
 1383              	.L105:
 1384 0054 1646     		mov	r6, r2
 1385 0056 0446     		mov	r4, r0
 535:Middlewares/Third_Party/FreeRTOS/Source/stream_buffer.c **** 	{
 1386              		.loc 1 535 0
 1387 0058 039B     		ldr	r3, [sp, #12]
 1388 005a 93B3     		cbz	r3, .L116
 537:Middlewares/Third_Party/FreeRTOS/Source/stream_buffer.c **** 
 1389              		.loc 1 537 0
 1390 005c 04A8     		add	r0, sp, #16
 1391              	.LVL156:
 1392 005e FFF7FEFF 		bl	vTaskSetTimeOutState
 1393              	.LVL157:
 1394              	.L111:
 543:Middlewares/Third_Party/FreeRTOS/Source/stream_buffer.c **** 			{
 1395              		.loc 1 543 0
 1396 0062 FFF7FEFF 		bl	vPortEnterCritical
 1397              	.LVL158:
 545:Middlewares/Third_Party/FreeRTOS/Source/stream_buffer.c **** 
 1398              		.loc 1 545 0
 1399 0066 2046     		mov	r0, r4
 1400 0068 FFF7FEFF 		bl	xStreamBufferSpacesAvailable
 1401              	.LVL159:
 1402 006c 0546     		mov	r5, r0
 1403              	.LVL160:
 547:Middlewares/Third_Party/FreeRTOS/Source/stream_buffer.c **** 				{
 1404              		.loc 1 547 0
 1405 006e 8742     		cmp	r7, r0
 1406 0070 24D9     		bls	.L108
 550:Middlewares/Third_Party/FreeRTOS/Source/stream_buffer.c **** 
 1407              		.loc 1 550 0
 1408 0072 0020     		movs	r0, #0
 1409              	.LVL161:
 1410 0074 FFF7FEFF 		bl	xTaskNotifyStateClear
 1411              	.LVL162:
 553:Middlewares/Third_Party/FreeRTOS/Source/stream_buffer.c **** 					pxStreamBuffer->xTaskWaitingToSend = xTaskGetCurrentTaskHandle();
 1412              		.loc 1 553 0
 1413 0078 6369     		ldr	r3, [r4, #20]
 1414 007a 43B1     		cbz	r3, .L109
 1415              	.LBB144:
 1416              	.LBB145:
 1417              		.loc 2 195 0
 1418              		.syntax unified
 1419              	@ 195 "Middlewares/Third_Party/FreeRTOS/Source/portable/GCC/ARM_CM4F/portmacro.h" 1
 1420 007c 4FF05003 			mov r3, #80												
 1421 0080 83F31188 		msr basepri, r3											
ARM GAS  /tmp/ccKrWf9C.s 			page 53


 1422 0084 BFF36F8F 		isb														
 1423 0088 BFF34F8F 		dsb														
 1424              	
 1425              	@ 0 "" 2
 1426              	.LVL163:
 1427              		.thumb
 1428              		.syntax unified
 1429              	.L110:
 1430 008c FEE7     		b	.L110
 1431              	.L109:
 1432              	.LBE145:
 1433              	.LBE144:
 554:Middlewares/Third_Party/FreeRTOS/Source/stream_buffer.c **** 				}
 1434              		.loc 1 554 0
 1435 008e FFF7FEFF 		bl	xTaskGetCurrentTaskHandle
 1436              	.LVL164:
 1437 0092 6061     		str	r0, [r4, #20]
 562:Middlewares/Third_Party/FreeRTOS/Source/stream_buffer.c **** 
 1438              		.loc 1 562 0
 1439 0094 FFF7FEFF 		bl	vPortExitCritical
 1440              	.LVL165:
 565:Middlewares/Third_Party/FreeRTOS/Source/stream_buffer.c **** 			pxStreamBuffer->xTaskWaitingToSend = NULL;
 1441              		.loc 1 565 0
 1442 0098 0DF11809 		add	r9, sp, #24
 1443 009c 59F80C3D 		ldr	r3, [r9, #-12]!
 1444 00a0 0022     		movs	r2, #0
 1445 00a2 1146     		mov	r1, r2
 1446 00a4 1046     		mov	r0, r2
 1447 00a6 FFF7FEFF 		bl	xTaskNotifyWait
 1448              	.LVL166:
 566:Middlewares/Third_Party/FreeRTOS/Source/stream_buffer.c **** 
 1449              		.loc 1 566 0
 1450 00aa 0023     		movs	r3, #0
 1451 00ac 6361     		str	r3, [r4, #20]
 568:Middlewares/Third_Party/FreeRTOS/Source/stream_buffer.c **** 	}
 1452              		.loc 1 568 0
 1453 00ae 4946     		mov	r1, r9
 1454 00b0 04A8     		add	r0, sp, #16
 1455 00b2 FFF7FEFF 		bl	xTaskCheckForTimeOut
 1456              	.LVL167:
 1457 00b6 0028     		cmp	r0, #0
 1458 00b8 D3D0     		beq	.L111
 1459 00ba 03E0     		b	.L107
 1460              	.LVL168:
 1461              	.L108:
 558:Middlewares/Third_Party/FreeRTOS/Source/stream_buffer.c **** 					break;
 1462              		.loc 1 558 0
 1463 00bc FFF7FEFF 		bl	vPortExitCritical
 1464              	.LVL169:
 559:Middlewares/Third_Party/FreeRTOS/Source/stream_buffer.c **** 				}
 1465              		.loc 1 559 0
 1466 00c0 00E0     		b	.L107
 1467              	.LVL170:
 1468              	.L116:
 512:Middlewares/Third_Party/FreeRTOS/Source/stream_buffer.c **** size_t xRequiredSpace = xDataLengthBytes;
 1469              		.loc 1 512 0
 1470 00c2 0025     		movs	r5, #0
ARM GAS  /tmp/ccKrWf9C.s 			page 54


 1471              	.LVL171:
 1472              	.L107:
 575:Middlewares/Third_Party/FreeRTOS/Source/stream_buffer.c **** 	{
 1473              		.loc 1 575 0
 1474 00c4 1DB9     		cbnz	r5, .L112
 577:Middlewares/Third_Party/FreeRTOS/Source/stream_buffer.c **** 	}
 1475              		.loc 1 577 0
 1476 00c6 2046     		mov	r0, r4
 1477 00c8 FFF7FEFF 		bl	xStreamBufferSpacesAvailable
 1478              	.LVL172:
 1479 00cc 0546     		mov	r5, r0
 1480              	.LVL173:
 1481              	.L112:
 584:Middlewares/Third_Party/FreeRTOS/Source/stream_buffer.c **** 
 1482              		.loc 1 584 0
 1483 00ce 0097     		str	r7, [sp]
 1484 00d0 2B46     		mov	r3, r5
 1485 00d2 3246     		mov	r2, r6
 1486 00d4 4146     		mov	r1, r8
 1487 00d6 2046     		mov	r0, r4
 1488 00d8 FFF7FEFF 		bl	prvWriteMessageToBuffer
 1489              	.LVL174:
 586:Middlewares/Third_Party/FreeRTOS/Source/stream_buffer.c **** 	{
 1490              		.loc 1 586 0
 1491 00dc 0546     		mov	r5, r0
 1492              	.LVL175:
 1493 00de 98B1     		cbz	r0, .L113
 591:Middlewares/Third_Party/FreeRTOS/Source/stream_buffer.c **** 		{
 1494              		.loc 1 591 0
 1495 00e0 2046     		mov	r0, r4
 1496              	.LVL176:
 1497 00e2 FFF7FEFF 		bl	prvBytesInBuffer
 1498              	.LVL177:
 1499 00e6 E368     		ldr	r3, [r4, #12]
 1500 00e8 9842     		cmp	r0, r3
 1501 00ea 0DD3     		bcc	.L113
 593:Middlewares/Third_Party/FreeRTOS/Source/stream_buffer.c **** 		}
 1502              		.loc 1 593 0
 1503 00ec FFF7FEFF 		bl	vTaskSuspendAll
 1504              	.LVL178:
 1505 00f0 2369     		ldr	r3, [r4, #16]
 1506 00f2 3BB1     		cbz	r3, .L114
 593:Middlewares/Third_Party/FreeRTOS/Source/stream_buffer.c **** 		}
 1507              		.loc 1 593 0 is_stmt 0 discriminator 1
 1508 00f4 2069     		ldr	r0, [r4, #16]
 1509 00f6 0023     		movs	r3, #0
 1510 00f8 1A46     		mov	r2, r3
 1511 00fa 1946     		mov	r1, r3
 1512 00fc FFF7FEFF 		bl	xTaskGenericNotify
 1513              	.LVL179:
 1514 0100 0023     		movs	r3, #0
 1515 0102 2361     		str	r3, [r4, #16]
 1516              	.L114:
 593:Middlewares/Third_Party/FreeRTOS/Source/stream_buffer.c **** 		}
 1517              		.loc 1 593 0 discriminator 3
 1518 0104 FFF7FEFF 		bl	xTaskResumeAll
 1519              	.LVL180:
ARM GAS  /tmp/ccKrWf9C.s 			page 55


 1520              	.L113:
 607:Middlewares/Third_Party/FreeRTOS/Source/stream_buffer.c **** /*-----------------------------------------------------------*/
 1521              		.loc 1 607 0 is_stmt 1
 1522 0108 2846     		mov	r0, r5
 1523 010a 07B0     		add	sp, sp, #28
 1524              	.LCFI22:
 1525              		.cfi_def_cfa_offset 28
 1526              		@ sp needed
 1527 010c BDE8F083 		pop	{r4, r5, r6, r7, r8, r9, pc}
 1528              		.cfi_endproc
 1529              	.LFE11:
 1531              		.section	.text.xStreamBufferSendFromISR,"ax",%progbits
 1532              		.align	2
 1533              		.global	xStreamBufferSendFromISR
 1534              		.thumb
 1535              		.thumb_func
 1537              	xStreamBufferSendFromISR:
 1538              	.LFB12:
 614:Middlewares/Third_Party/FreeRTOS/Source/stream_buffer.c **** StreamBuffer_t * const pxStreamBuffer = xStreamBuffer;
 1539              		.loc 1 614 0
 1540              		.cfi_startproc
 1541              		@ args = 0, pretend = 0, frame = 0
 1542              		@ frame_needed = 0, uses_anonymous_args = 0
 1543              	.LVL181:
 619:Middlewares/Third_Party/FreeRTOS/Source/stream_buffer.c **** 	configASSERT( pxStreamBuffer );
 1544              		.loc 1 619 0
 1545 0000 41B9     		cbnz	r1, .L119
 1546              	.LBB146:
 1547              	.LBB147:
 1548              		.loc 2 195 0
 1549              		.syntax unified
 1550              	@ 195 "Middlewares/Third_Party/FreeRTOS/Source/portable/GCC/ARM_CM4F/portmacro.h" 1
 1551 0002 4FF05003 			mov r3, #80												
 1552 0006 83F31188 		msr basepri, r3											
 1553 000a BFF36F8F 		isb														
 1554 000e BFF34F8F 		dsb														
 1555              	
 1556              	@ 0 "" 2
 1557              	.LVL182:
 1558              		.thumb
 1559              		.syntax unified
 1560              	.L120:
 1561 0012 FEE7     		b	.L120
 1562              	.LVL183:
 1563              	.L119:
 1564              	.LBE147:
 1565              	.LBE146:
 614:Middlewares/Third_Party/FreeRTOS/Source/stream_buffer.c **** StreamBuffer_t * const pxStreamBuffer = xStreamBuffer;
 1566              		.loc 1 614 0
 1567 0014 2DE9F041 		push	{r4, r5, r6, r7, r8, lr}
 1568              	.LCFI23:
 1569              		.cfi_def_cfa_offset 24
 1570              		.cfi_offset 4, -24
 1571              		.cfi_offset 5, -20
 1572              		.cfi_offset 6, -16
 1573              		.cfi_offset 7, -12
 1574              		.cfi_offset 8, -8
ARM GAS  /tmp/ccKrWf9C.s 			page 56


 1575              		.cfi_offset 14, -4
 1576 0018 82B0     		sub	sp, sp, #8
 1577              	.LCFI24:
 1578              		.cfi_def_cfa_offset 32
 1579 001a 0E46     		mov	r6, r1
 620:Middlewares/Third_Party/FreeRTOS/Source/stream_buffer.c **** 
 1580              		.loc 1 620 0
 1581 001c 40B9     		cbnz	r0, .L121
 1582              	.LBB148:
 1583              	.LBB149:
 1584              		.loc 2 195 0
 1585              		.syntax unified
 1586              	@ 195 "Middlewares/Third_Party/FreeRTOS/Source/portable/GCC/ARM_CM4F/portmacro.h" 1
 1587 001e 4FF05003 			mov r3, #80												
 1588 0022 83F31188 		msr basepri, r3											
 1589 0026 BFF36F8F 		isb														
 1590 002a BFF34F8F 		dsb														
 1591              	
 1592              	@ 0 "" 2
 1593              	.LVL184:
 1594              		.thumb
 1595              		.syntax unified
 1596              	.L122:
 1597 002e FEE7     		b	.L122
 1598              	.LVL185:
 1599              	.L121:
 1600              	.LBE149:
 1601              	.LBE148:
 626:Middlewares/Third_Party/FreeRTOS/Source/stream_buffer.c **** 	{
 1602              		.loc 1 626 0
 1603 0030 017F     		ldrb	r1, [r0, #28]	@ zero_extendqisi2
 1604              	.LVL186:
 1605 0032 11F0010F 		tst	r1, #1
 1606 0036 02D0     		beq	.L126
 628:Middlewares/Third_Party/FreeRTOS/Source/stream_buffer.c **** 	}
 1607              		.loc 1 628 0
 1608 0038 02F10408 		add	r8, r2, #4
 1609              	.LVL187:
 1610 003c 00E0     		b	.L123
 1611              	.LVL188:
 1612              	.L126:
 617:Middlewares/Third_Party/FreeRTOS/Source/stream_buffer.c **** 
 1613              		.loc 1 617 0
 1614 003e 9046     		mov	r8, r2
 1615              	.LVL189:
 1616              	.L123:
 1617 0040 1F46     		mov	r7, r3
 1618 0042 1546     		mov	r5, r2
 1619 0044 0446     		mov	r4, r0
 635:Middlewares/Third_Party/FreeRTOS/Source/stream_buffer.c **** 	xReturn = prvWriteMessageToBuffer( pxStreamBuffer, pvTxData, xDataLengthBytes, xSpace, xRequiredSp
 1620              		.loc 1 635 0
 1621 0046 FFF7FEFF 		bl	xStreamBufferSpacesAvailable
 1622              	.LVL190:
 636:Middlewares/Third_Party/FreeRTOS/Source/stream_buffer.c **** 
 1623              		.loc 1 636 0
 1624 004a CDF80080 		str	r8, [sp]
 1625 004e 0346     		mov	r3, r0
ARM GAS  /tmp/ccKrWf9C.s 			page 57


 1626 0050 2A46     		mov	r2, r5
 1627 0052 3146     		mov	r1, r6
 1628 0054 2046     		mov	r0, r4
 1629              	.LVL191:
 1630 0056 FFF7FEFF 		bl	prvWriteMessageToBuffer
 1631              	.LVL192:
 638:Middlewares/Third_Party/FreeRTOS/Source/stream_buffer.c **** 	{
 1632              		.loc 1 638 0
 1633 005a 0546     		mov	r5, r0
 1634              	.LVL193:
 1635 005c E0B1     		cbz	r0, .L124
 641:Middlewares/Third_Party/FreeRTOS/Source/stream_buffer.c **** 		{
 1636              		.loc 1 641 0
 1637 005e 2046     		mov	r0, r4
 1638              	.LVL194:
 1639 0060 FFF7FEFF 		bl	prvBytesInBuffer
 1640              	.LVL195:
 1641 0064 E368     		ldr	r3, [r4, #12]
 1642 0066 9842     		cmp	r0, r3
 1643 0068 16D3     		bcc	.L124
 1644              	.LBB150:
 1645              	.LBB151:
 1646              	.LBB152:
 196:Middlewares/Third_Party/FreeRTOS/Source/portable/GCC/ARM_CM4F/portmacro.h **** 	(
 197:Middlewares/Third_Party/FreeRTOS/Source/portable/GCC/ARM_CM4F/portmacro.h **** 		"	mov %0, %1												\n"	\
 198:Middlewares/Third_Party/FreeRTOS/Source/portable/GCC/ARM_CM4F/portmacro.h **** 		"	msr basepri, %0											\n" \
 199:Middlewares/Third_Party/FreeRTOS/Source/portable/GCC/ARM_CM4F/portmacro.h **** 		"	isb														\n" \
 200:Middlewares/Third_Party/FreeRTOS/Source/portable/GCC/ARM_CM4F/portmacro.h **** 		"	dsb														\n" \
 201:Middlewares/Third_Party/FreeRTOS/Source/portable/GCC/ARM_CM4F/portmacro.h **** 		:"=r" (ulNewBASEPRI) : "i" ( configMAX_SYSCALL_INTERRUPT_PRIORITY ) : "memory"
 202:Middlewares/Third_Party/FreeRTOS/Source/portable/GCC/ARM_CM4F/portmacro.h **** 	);
 203:Middlewares/Third_Party/FreeRTOS/Source/portable/GCC/ARM_CM4F/portmacro.h **** }
 204:Middlewares/Third_Party/FreeRTOS/Source/portable/GCC/ARM_CM4F/portmacro.h **** 
 205:Middlewares/Third_Party/FreeRTOS/Source/portable/GCC/ARM_CM4F/portmacro.h **** /*-----------------------------------------------------------*/
 206:Middlewares/Third_Party/FreeRTOS/Source/portable/GCC/ARM_CM4F/portmacro.h **** 
 207:Middlewares/Third_Party/FreeRTOS/Source/portable/GCC/ARM_CM4F/portmacro.h **** portFORCE_INLINE static uint32_t ulPortRaiseBASEPRI( void )
 208:Middlewares/Third_Party/FreeRTOS/Source/portable/GCC/ARM_CM4F/portmacro.h **** {
 209:Middlewares/Third_Party/FreeRTOS/Source/portable/GCC/ARM_CM4F/portmacro.h **** uint32_t ulOriginalBASEPRI, ulNewBASEPRI;
 210:Middlewares/Third_Party/FreeRTOS/Source/portable/GCC/ARM_CM4F/portmacro.h **** 
 211:Middlewares/Third_Party/FreeRTOS/Source/portable/GCC/ARM_CM4F/portmacro.h **** 	__asm volatile
 1647              		.loc 2 211 0
 1648              		.syntax unified
 1649              	@ 211 "Middlewares/Third_Party/FreeRTOS/Source/portable/GCC/ARM_CM4F/portmacro.h" 1
 1650 006a EFF31186 			mrs r6, basepri											
 1651 006e 4FF05003 		mov r3, #80												
 1652 0072 83F31188 		msr basepri, r3											
 1653 0076 BFF36F8F 		isb														
 1654 007a BFF34F8F 		dsb														
 1655              	
 1656              	@ 0 "" 2
 1657              	.LVL196:
 1658              		.thumb
 1659              		.syntax unified
 1660              	.LBE152:
 1661              	.LBE151:
 643:Middlewares/Third_Party/FreeRTOS/Source/stream_buffer.c **** 		}
 1662              		.loc 1 643 0
 1663 007e 2369     		ldr	r3, [r4, #16]
ARM GAS  /tmp/ccKrWf9C.s 			page 58


 1664 0080 43B1     		cbz	r3, .L125
 643:Middlewares/Third_Party/FreeRTOS/Source/stream_buffer.c **** 		}
 1665              		.loc 1 643 0 is_stmt 0 discriminator 1
 1666 0082 2069     		ldr	r0, [r4, #16]
 1667 0084 0097     		str	r7, [sp]
 1668 0086 0023     		movs	r3, #0
 1669 0088 1A46     		mov	r2, r3
 1670 008a 1946     		mov	r1, r3
 1671 008c FFF7FEFF 		bl	xTaskGenericNotifyFromISR
 1672              	.LVL197:
 1673 0090 0023     		movs	r3, #0
 1674 0092 2361     		str	r3, [r4, #16]
 1675              	.L125:
 1676              	.LVL198:
 1677              	.LBB153:
 1678              	.LBB154:
 212:Middlewares/Third_Party/FreeRTOS/Source/portable/GCC/ARM_CM4F/portmacro.h **** 	(
 213:Middlewares/Third_Party/FreeRTOS/Source/portable/GCC/ARM_CM4F/portmacro.h **** 		"	mrs %0, basepri											\n" \
 214:Middlewares/Third_Party/FreeRTOS/Source/portable/GCC/ARM_CM4F/portmacro.h **** 		"	mov %1, %2												\n"	\
 215:Middlewares/Third_Party/FreeRTOS/Source/portable/GCC/ARM_CM4F/portmacro.h **** 		"	msr basepri, %1											\n" \
 216:Middlewares/Third_Party/FreeRTOS/Source/portable/GCC/ARM_CM4F/portmacro.h **** 		"	isb														\n" \
 217:Middlewares/Third_Party/FreeRTOS/Source/portable/GCC/ARM_CM4F/portmacro.h **** 		"	dsb														\n" \
 218:Middlewares/Third_Party/FreeRTOS/Source/portable/GCC/ARM_CM4F/portmacro.h **** 		:"=r" (ulOriginalBASEPRI), "=r" (ulNewBASEPRI) : "i" ( configMAX_SYSCALL_INTERRUPT_PRIORITY ) : "
 219:Middlewares/Third_Party/FreeRTOS/Source/portable/GCC/ARM_CM4F/portmacro.h **** 	);
 220:Middlewares/Third_Party/FreeRTOS/Source/portable/GCC/ARM_CM4F/portmacro.h **** 
 221:Middlewares/Third_Party/FreeRTOS/Source/portable/GCC/ARM_CM4F/portmacro.h **** 	/* This return will not be reached but is necessary to prevent compiler
 222:Middlewares/Third_Party/FreeRTOS/Source/portable/GCC/ARM_CM4F/portmacro.h **** 	warnings. */
 223:Middlewares/Third_Party/FreeRTOS/Source/portable/GCC/ARM_CM4F/portmacro.h **** 	return ulOriginalBASEPRI;
 224:Middlewares/Third_Party/FreeRTOS/Source/portable/GCC/ARM_CM4F/portmacro.h **** }
 225:Middlewares/Third_Party/FreeRTOS/Source/portable/GCC/ARM_CM4F/portmacro.h **** /*-----------------------------------------------------------*/
 226:Middlewares/Third_Party/FreeRTOS/Source/portable/GCC/ARM_CM4F/portmacro.h **** 
 227:Middlewares/Third_Party/FreeRTOS/Source/portable/GCC/ARM_CM4F/portmacro.h **** portFORCE_INLINE static void vPortSetBASEPRI( uint32_t ulNewMaskValue )
 228:Middlewares/Third_Party/FreeRTOS/Source/portable/GCC/ARM_CM4F/portmacro.h **** {
 229:Middlewares/Third_Party/FreeRTOS/Source/portable/GCC/ARM_CM4F/portmacro.h **** 	__asm volatile
 1679              		.loc 2 229 0 is_stmt 1 discriminator 3
 1680              		.syntax unified
 1681              	@ 229 "Middlewares/Third_Party/FreeRTOS/Source/portable/GCC/ARM_CM4F/portmacro.h" 1
 1682 0094 86F31188 			msr basepri, r6	
 1683              	@ 0 "" 2
 1684              	.LVL199:
 1685              		.thumb
 1686              		.syntax unified
 1687              	.L124:
 1688              	.LBE154:
 1689              	.LBE153:
 1690              	.LBE150:
 658:Middlewares/Third_Party/FreeRTOS/Source/stream_buffer.c **** /*-----------------------------------------------------------*/
 1691              		.loc 1 658 0
 1692 0098 2846     		mov	r0, r5
 1693 009a 02B0     		add	sp, sp, #8
 1694              	.LCFI25:
 1695              		.cfi_def_cfa_offset 24
 1696              		@ sp needed
 1697 009c BDE8F081 		pop	{r4, r5, r6, r7, r8, pc}
 1698              		.cfi_endproc
 1699              	.LFE12:
 1701              		.section	.text.xStreamBufferReceive,"ax",%progbits
ARM GAS  /tmp/ccKrWf9C.s 			page 59


 1702              		.align	2
 1703              		.global	xStreamBufferReceive
 1704              		.thumb
 1705              		.thumb_func
 1707              	xStreamBufferReceive:
 1708              	.LFB14:
 717:Middlewares/Third_Party/FreeRTOS/Source/stream_buffer.c **** StreamBuffer_t * const pxStreamBuffer = xStreamBuffer;
 1709              		.loc 1 717 0
 1710              		.cfi_startproc
 1711              		@ args = 0, pretend = 0, frame = 0
 1712              		@ frame_needed = 0, uses_anonymous_args = 0
 1713              	.LVL200:
 721:Middlewares/Third_Party/FreeRTOS/Source/stream_buffer.c **** 	configASSERT( pxStreamBuffer );
 1714              		.loc 1 721 0
 1715 0000 41B9     		cbnz	r1, .L129
 1716              	.LBB155:
 1717              	.LBB156:
 195:Middlewares/Third_Party/FreeRTOS/Source/portable/GCC/ARM_CM4F/portmacro.h **** 	(
 1718              		.loc 2 195 0
 1719              		.syntax unified
 1720              	@ 195 "Middlewares/Third_Party/FreeRTOS/Source/portable/GCC/ARM_CM4F/portmacro.h" 1
 1721 0002 4FF05003 			mov r3, #80												
 1722 0006 83F31188 		msr basepri, r3											
 1723 000a BFF36F8F 		isb														
 1724 000e BFF34F8F 		dsb														
 1725              	
 1726              	@ 0 "" 2
 1727              	.LVL201:
 1728              		.thumb
 1729              		.syntax unified
 1730              	.L130:
 1731 0012 FEE7     		b	.L130
 1732              	.LVL202:
 1733              	.L129:
 1734              	.LBE156:
 1735              	.LBE155:
 717:Middlewares/Third_Party/FreeRTOS/Source/stream_buffer.c **** StreamBuffer_t * const pxStreamBuffer = xStreamBuffer;
 1736              		.loc 1 717 0
 1737 0014 2DE9F043 		push	{r4, r5, r6, r7, r8, r9, lr}
 1738              	.LCFI26:
 1739              		.cfi_def_cfa_offset 28
 1740              		.cfi_offset 4, -28
 1741              		.cfi_offset 5, -24
 1742              		.cfi_offset 6, -20
 1743              		.cfi_offset 7, -16
 1744              		.cfi_offset 8, -12
 1745              		.cfi_offset 9, -8
 1746              		.cfi_offset 14, -4
 1747 0018 83B0     		sub	sp, sp, #12
 1748              	.LCFI27:
 1749              		.cfi_def_cfa_offset 40
 1750 001a 8846     		mov	r8, r1
 722:Middlewares/Third_Party/FreeRTOS/Source/stream_buffer.c **** 
 1751              		.loc 1 722 0
 1752 001c 40B9     		cbnz	r0, .L131
 1753              	.LBB157:
 1754              	.LBB158:
ARM GAS  /tmp/ccKrWf9C.s 			page 60


 195:Middlewares/Third_Party/FreeRTOS/Source/portable/GCC/ARM_CM4F/portmacro.h **** 	(
 1755              		.loc 2 195 0
 1756              		.syntax unified
 1757              	@ 195 "Middlewares/Third_Party/FreeRTOS/Source/portable/GCC/ARM_CM4F/portmacro.h" 1
 1758 001e 4FF05003 			mov r3, #80												
 1759 0022 83F31188 		msr basepri, r3											
 1760 0026 BFF36F8F 		isb														
 1761 002a BFF34F8F 		dsb														
 1762              	
 1763              	@ 0 "" 2
 1764              	.LVL203:
 1765              		.thumb
 1766              		.syntax unified
 1767              	.L132:
 1768 002e FEE7     		b	.L132
 1769              	.LVL204:
 1770              	.L131:
 1771              	.LBE158:
 1772              	.LBE157:
 729:Middlewares/Third_Party/FreeRTOS/Source/stream_buffer.c **** 	{
 1773              		.loc 1 729 0
 1774 0030 017F     		ldrb	r1, [r0, #28]	@ zero_extendqisi2
 1775              	.LVL205:
 1776 0032 11F0010F 		tst	r1, #1
 1777 0036 01D0     		beq	.L141
 731:Middlewares/Third_Party/FreeRTOS/Source/stream_buffer.c **** 	}
 1778              		.loc 1 731 0
 1779 0038 0426     		movs	r6, #4
 1780 003a 00E0     		b	.L133
 1781              	.L141:
 735:Middlewares/Third_Party/FreeRTOS/Source/stream_buffer.c **** 	}
 1782              		.loc 1 735 0
 1783 003c 0026     		movs	r6, #0
 1784              	.L133:
 1785 003e 1F46     		mov	r7, r3
 1786 0040 9146     		mov	r9, r2
 1787 0042 0446     		mov	r4, r0
 1788              	.LVL206:
 738:Middlewares/Third_Party/FreeRTOS/Source/stream_buffer.c **** 	{
 1789              		.loc 1 738 0
 1790 0044 4BB3     		cbz	r3, .L134
 742:Middlewares/Third_Party/FreeRTOS/Source/stream_buffer.c **** 		{
 1791              		.loc 1 742 0
 1792 0046 FFF7FEFF 		bl	vPortEnterCritical
 1793              	.LVL207:
 744:Middlewares/Third_Party/FreeRTOS/Source/stream_buffer.c **** 
 1794              		.loc 1 744 0
 1795 004a 2046     		mov	r0, r4
 1796 004c FFF7FEFF 		bl	prvBytesInBuffer
 1797              	.LVL208:
 1798 0050 0546     		mov	r5, r0
 1799              	.LVL209:
 751:Middlewares/Third_Party/FreeRTOS/Source/stream_buffer.c **** 			{
 1800              		.loc 1 751 0
 1801 0052 8642     		cmp	r6, r0
 1802 0054 10D3     		bcc	.L135
 754:Middlewares/Third_Party/FreeRTOS/Source/stream_buffer.c **** 
ARM GAS  /tmp/ccKrWf9C.s 			page 61


 1803              		.loc 1 754 0
 1804 0056 0020     		movs	r0, #0
 1805              	.LVL210:
 1806 0058 FFF7FEFF 		bl	xTaskNotifyStateClear
 1807              	.LVL211:
 757:Middlewares/Third_Party/FreeRTOS/Source/stream_buffer.c **** 				pxStreamBuffer->xTaskWaitingToReceive = xTaskGetCurrentTaskHandle();
 1808              		.loc 1 757 0
 1809 005c 2369     		ldr	r3, [r4, #16]
 1810 005e 43B1     		cbz	r3, .L136
 1811              	.LBB159:
 1812              	.LBB160:
 195:Middlewares/Third_Party/FreeRTOS/Source/portable/GCC/ARM_CM4F/portmacro.h **** 	(
 1813              		.loc 2 195 0
 1814              		.syntax unified
 1815              	@ 195 "Middlewares/Third_Party/FreeRTOS/Source/portable/GCC/ARM_CM4F/portmacro.h" 1
 1816 0060 4FF05003 			mov r3, #80												
 1817 0064 83F31188 		msr basepri, r3											
 1818 0068 BFF36F8F 		isb														
 1819 006c BFF34F8F 		dsb														
 1820              	
 1821              	@ 0 "" 2
 1822              	.LVL212:
 1823              		.thumb
 1824              		.syntax unified
 1825              	.L137:
 1826 0070 FEE7     		b	.L137
 1827              	.L136:
 1828              	.LBE160:
 1829              	.LBE159:
 758:Middlewares/Third_Party/FreeRTOS/Source/stream_buffer.c **** 			}
 1830              		.loc 1 758 0
 1831 0072 FFF7FEFF 		bl	xTaskGetCurrentTaskHandle
 1832              	.LVL213:
 1833 0076 2061     		str	r0, [r4, #16]
 1834              	.L135:
 765:Middlewares/Third_Party/FreeRTOS/Source/stream_buffer.c **** 
 1835              		.loc 1 765 0
 1836 0078 FFF7FEFF 		bl	vPortExitCritical
 1837              	.LVL214:
 767:Middlewares/Third_Party/FreeRTOS/Source/stream_buffer.c **** 		{
 1838              		.loc 1 767 0
 1839 007c AE42     		cmp	r6, r5
 1840 007e 0FD3     		bcc	.L138
 771:Middlewares/Third_Party/FreeRTOS/Source/stream_buffer.c **** 			pxStreamBuffer->xTaskWaitingToReceive = NULL;
 1841              		.loc 1 771 0
 1842 0080 3B46     		mov	r3, r7
 1843 0082 0022     		movs	r2, #0
 1844 0084 1146     		mov	r1, r2
 1845 0086 1046     		mov	r0, r2
 1846 0088 FFF7FEFF 		bl	xTaskNotifyWait
 1847              	.LVL215:
 772:Middlewares/Third_Party/FreeRTOS/Source/stream_buffer.c **** 
 1848              		.loc 1 772 0
 1849 008c 0023     		movs	r3, #0
 1850 008e 2361     		str	r3, [r4, #16]
 775:Middlewares/Third_Party/FreeRTOS/Source/stream_buffer.c **** 		}
 1851              		.loc 1 775 0
ARM GAS  /tmp/ccKrWf9C.s 			page 62


 1852 0090 2046     		mov	r0, r4
 1853 0092 FFF7FEFF 		bl	prvBytesInBuffer
 1854              	.LVL216:
 1855 0096 0546     		mov	r5, r0
 1856              	.LVL217:
 1857 0098 02E0     		b	.L138
 1858              	.LVL218:
 1859              	.L134:
 784:Middlewares/Third_Party/FreeRTOS/Source/stream_buffer.c **** 	}
 1860              		.loc 1 784 0
 1861 009a FFF7FEFF 		bl	prvBytesInBuffer
 1862              	.LVL219:
 1863 009e 0546     		mov	r5, r0
 1864              	.LVL220:
 1865              	.L138:
 792:Middlewares/Third_Party/FreeRTOS/Source/stream_buffer.c **** 	{
 1866              		.loc 1 792 0
 1867 00a0 B542     		cmp	r5, r6
 1868 00a2 17D9     		bls	.L142
 794:Middlewares/Third_Party/FreeRTOS/Source/stream_buffer.c **** 
 1869              		.loc 1 794 0
 1870 00a4 0096     		str	r6, [sp]
 1871 00a6 2B46     		mov	r3, r5
 1872 00a8 4A46     		mov	r2, r9
 1873 00aa 4146     		mov	r1, r8
 1874 00ac 2046     		mov	r0, r4
 1875 00ae FFF7FEFF 		bl	prvReadMessageFromBuffer
 1876              	.LVL221:
 797:Middlewares/Third_Party/FreeRTOS/Source/stream_buffer.c **** 		{
 1877              		.loc 1 797 0
 1878 00b2 0546     		mov	r5, r0
 1879              	.LVL222:
 1880 00b4 78B1     		cbz	r0, .L139
 800:Middlewares/Third_Party/FreeRTOS/Source/stream_buffer.c **** 		}
 1881              		.loc 1 800 0
 1882 00b6 FFF7FEFF 		bl	vTaskSuspendAll
 1883              	.LVL223:
 1884 00ba 6369     		ldr	r3, [r4, #20]
 1885 00bc 3BB1     		cbz	r3, .L140
 800:Middlewares/Third_Party/FreeRTOS/Source/stream_buffer.c **** 		}
 1886              		.loc 1 800 0 is_stmt 0 discriminator 1
 1887 00be 6069     		ldr	r0, [r4, #20]
 1888 00c0 0023     		movs	r3, #0
 1889 00c2 1A46     		mov	r2, r3
 1890 00c4 1946     		mov	r1, r3
 1891 00c6 FFF7FEFF 		bl	xTaskGenericNotify
 1892              	.LVL224:
 1893 00ca 0023     		movs	r3, #0
 1894 00cc 6361     		str	r3, [r4, #20]
 1895              	.L140:
 800:Middlewares/Third_Party/FreeRTOS/Source/stream_buffer.c **** 		}
 1896              		.loc 1 800 0 discriminator 3
 1897 00ce FFF7FEFF 		bl	xTaskResumeAll
 1898              	.LVL225:
 1899 00d2 00E0     		b	.L139
 1900              	.LVL226:
 1901              	.L142:
ARM GAS  /tmp/ccKrWf9C.s 			page 63


 719:Middlewares/Third_Party/FreeRTOS/Source/stream_buffer.c **** 
 1902              		.loc 1 719 0 is_stmt 1
 1903 00d4 0025     		movs	r5, #0
 1904              	.LVL227:
 1905              	.L139:
 814:Middlewares/Third_Party/FreeRTOS/Source/stream_buffer.c **** /*-----------------------------------------------------------*/
 1906              		.loc 1 814 0
 1907 00d6 2846     		mov	r0, r5
 1908 00d8 03B0     		add	sp, sp, #12
 1909              	.LCFI28:
 1910              		.cfi_def_cfa_offset 28
 1911              		@ sp needed
 1912 00da BDE8F083 		pop	{r4, r5, r6, r7, r8, r9, pc}
 1913              		.cfi_endproc
 1914              	.LFE14:
 1916 00de 00BF     		.section	.text.xStreamBufferNextMessageLengthBytes,"ax",%progbits
 1917              		.align	2
 1918              		.global	xStreamBufferNextMessageLengthBytes
 1919              		.thumb
 1920              		.thumb_func
 1922              	xStreamBufferNextMessageLengthBytes:
 1923              	.LFB15:
 818:Middlewares/Third_Party/FreeRTOS/Source/stream_buffer.c **** StreamBuffer_t * const pxStreamBuffer = xStreamBuffer;
 1924              		.loc 1 818 0
 1925              		.cfi_startproc
 1926              		@ args = 0, pretend = 0, frame = 8
 1927              		@ frame_needed = 0, uses_anonymous_args = 0
 1928              	.LVL228:
 823:Middlewares/Third_Party/FreeRTOS/Source/stream_buffer.c **** 
 1929              		.loc 1 823 0
 1930 0000 40B9     		cbnz	r0, .L145
 1931              	.LBB161:
 1932              	.LBB162:
 195:Middlewares/Third_Party/FreeRTOS/Source/portable/GCC/ARM_CM4F/portmacro.h **** 	(
 1933              		.loc 2 195 0
 1934              		.syntax unified
 1935              	@ 195 "Middlewares/Third_Party/FreeRTOS/Source/portable/GCC/ARM_CM4F/portmacro.h" 1
 1936 0002 4FF05003 			mov r3, #80												
 1937 0006 83F31188 		msr basepri, r3											
 1938 000a BFF36F8F 		isb														
 1939 000e BFF34F8F 		dsb														
 1940              	
 1941              	@ 0 "" 2
 1942              	.LVL229:
 1943              		.thumb
 1944              		.syntax unified
 1945              	.L146:
 1946 0012 FEE7     		b	.L146
 1947              	.L145:
 1948              	.LBE162:
 1949              	.LBE161:
 818:Middlewares/Third_Party/FreeRTOS/Source/stream_buffer.c **** StreamBuffer_t * const pxStreamBuffer = xStreamBuffer;
 1950              		.loc 1 818 0
 1951 0014 30B5     		push	{r4, r5, lr}
 1952              	.LCFI29:
 1953              		.cfi_def_cfa_offset 12
 1954              		.cfi_offset 4, -12
ARM GAS  /tmp/ccKrWf9C.s 			page 64


 1955              		.cfi_offset 5, -8
 1956              		.cfi_offset 14, -4
 1957 0016 83B0     		sub	sp, sp, #12
 1958              	.LCFI30:
 1959              		.cfi_def_cfa_offset 24
 1960 0018 0446     		mov	r4, r0
 826:Middlewares/Third_Party/FreeRTOS/Source/stream_buffer.c **** 	{
 1961              		.loc 1 826 0
 1962 001a 037F     		ldrb	r3, [r0, #28]	@ zero_extendqisi2
 1963 001c 13F0010F 		tst	r3, #1
 1964 0020 18D0     		beq	.L150
 828:Middlewares/Third_Party/FreeRTOS/Source/stream_buffer.c **** 		if( xBytesAvailable > sbBYTES_TO_STORE_MESSAGE_LENGTH )
 1965              		.loc 1 828 0
 1966 0022 FFF7FEFF 		bl	prvBytesInBuffer
 1967              	.LVL230:
 1968 0026 0346     		mov	r3, r0
 1969              	.LVL231:
 829:Middlewares/Third_Party/FreeRTOS/Source/stream_buffer.c **** 		{
 1970              		.loc 1 829 0
 1971 0028 0428     		cmp	r0, #4
 1972 002a 09D9     		bls	.L148
 837:Middlewares/Third_Party/FreeRTOS/Source/stream_buffer.c **** 			( void ) prvReadBytesFromBuffer( pxStreamBuffer, ( uint8_t * ) &xTempReturn, sbBYTES_TO_STORE_ME
 1973              		.loc 1 837 0
 1974 002c 2568     		ldr	r5, [r4]
 1975              	.LVL232:
 838:Middlewares/Third_Party/FreeRTOS/Source/stream_buffer.c **** 			xReturn = ( size_t ) xTempReturn;
 1976              		.loc 1 838 0
 1977 002e 0422     		movs	r2, #4
 1978 0030 0DEB0201 		add	r1, sp, r2
 1979 0034 2046     		mov	r0, r4
 1980              	.LVL233:
 1981 0036 FFF7FEFF 		bl	prvReadBytesFromBuffer
 1982              	.LVL234:
 839:Middlewares/Third_Party/FreeRTOS/Source/stream_buffer.c **** 			pxStreamBuffer->xTail = xOriginalTail;
 1983              		.loc 1 839 0
 1984 003a 0198     		ldr	r0, [sp, #4]
 1985              	.LVL235:
 840:Middlewares/Third_Party/FreeRTOS/Source/stream_buffer.c **** 		}
 1986              		.loc 1 840 0
 1987 003c 2560     		str	r5, [r4]
 1988 003e 0CE0     		b	.L147
 1989              	.LVL236:
 1990              	.L148:
 848:Middlewares/Third_Party/FreeRTOS/Source/stream_buffer.c **** 			xReturn = 0;
 1991              		.loc 1 848 0
 1992 0040 50B1     		cbz	r0, .L151
 1993              	.LBB163:
 1994              	.LBB164:
 195:Middlewares/Third_Party/FreeRTOS/Source/portable/GCC/ARM_CM4F/portmacro.h **** 	(
 1995              		.loc 2 195 0
 1996              		.syntax unified
 1997              	@ 195 "Middlewares/Third_Party/FreeRTOS/Source/portable/GCC/ARM_CM4F/portmacro.h" 1
 1998 0042 4FF05003 			mov r3, #80												
 1999 0046 83F31188 		msr basepri, r3											
 2000 004a BFF36F8F 		isb														
 2001 004e BFF34F8F 		dsb														
 2002              	
ARM GAS  /tmp/ccKrWf9C.s 			page 65


 2003              	@ 0 "" 2
 2004              	.LVL237:
 2005              		.thumb
 2006              		.syntax unified
 2007              	.L149:
 2008 0052 FEE7     		b	.L149
 2009              	.LVL238:
 2010              	.L150:
 2011              	.LBE164:
 2012              	.LBE163:
 854:Middlewares/Third_Party/FreeRTOS/Source/stream_buffer.c **** 	}
 2013              		.loc 1 854 0
 2014 0054 0020     		movs	r0, #0
 2015              	.LVL239:
 2016 0056 00E0     		b	.L147
 2017              	.LVL240:
 2018              	.L151:
 849:Middlewares/Third_Party/FreeRTOS/Source/stream_buffer.c **** 		}
 2019              		.loc 1 849 0
 2020 0058 0020     		movs	r0, #0
 2021              	.LVL241:
 2022              	.L147:
 858:Middlewares/Third_Party/FreeRTOS/Source/stream_buffer.c **** /*-----------------------------------------------------------*/
 2023              		.loc 1 858 0
 2024 005a 03B0     		add	sp, sp, #12
 2025              	.LCFI31:
 2026              		.cfi_def_cfa_offset 12
 2027              		@ sp needed
 2028 005c 30BD     		pop	{r4, r5, pc}
 2029              		.cfi_endproc
 2030              	.LFE15:
 2032 005e 00BF     		.section	.text.xStreamBufferReceiveFromISR,"ax",%progbits
 2033              		.align	2
 2034              		.global	xStreamBufferReceiveFromISR
 2035              		.thumb
 2036              		.thumb_func
 2038              	xStreamBufferReceiveFromISR:
 2039              	.LFB16:
 865:Middlewares/Third_Party/FreeRTOS/Source/stream_buffer.c **** StreamBuffer_t * const pxStreamBuffer = xStreamBuffer;
 2040              		.loc 1 865 0
 2041              		.cfi_startproc
 2042              		@ args = 0, pretend = 0, frame = 0
 2043              		@ frame_needed = 0, uses_anonymous_args = 0
 2044              	.LVL242:
 869:Middlewares/Third_Party/FreeRTOS/Source/stream_buffer.c **** 	configASSERT( pxStreamBuffer );
 2045              		.loc 1 869 0
 2046 0000 41B9     		cbnz	r1, .L154
 2047              	.LBB165:
 2048              	.LBB166:
 195:Middlewares/Third_Party/FreeRTOS/Source/portable/GCC/ARM_CM4F/portmacro.h **** 	(
 2049              		.loc 2 195 0
 2050              		.syntax unified
 2051              	@ 195 "Middlewares/Third_Party/FreeRTOS/Source/portable/GCC/ARM_CM4F/portmacro.h" 1
 2052 0002 4FF05003 			mov r3, #80												
 2053 0006 83F31188 		msr basepri, r3											
 2054 000a BFF36F8F 		isb														
 2055 000e BFF34F8F 		dsb														
ARM GAS  /tmp/ccKrWf9C.s 			page 66


 2056              	
 2057              	@ 0 "" 2
 2058              	.LVL243:
 2059              		.thumb
 2060              		.syntax unified
 2061              	.L155:
 2062 0012 FEE7     		b	.L155
 2063              	.LVL244:
 2064              	.L154:
 2065              	.LBE166:
 2066              	.LBE165:
 865:Middlewares/Third_Party/FreeRTOS/Source/stream_buffer.c **** StreamBuffer_t * const pxStreamBuffer = xStreamBuffer;
 2067              		.loc 1 865 0
 2068 0014 2DE9F041 		push	{r4, r5, r6, r7, r8, lr}
 2069              	.LCFI32:
 2070              		.cfi_def_cfa_offset 24
 2071              		.cfi_offset 4, -24
 2072              		.cfi_offset 5, -20
 2073              		.cfi_offset 6, -16
 2074              		.cfi_offset 7, -12
 2075              		.cfi_offset 8, -8
 2076              		.cfi_offset 14, -4
 2077 0018 82B0     		sub	sp, sp, #8
 2078              	.LCFI33:
 2079              		.cfi_def_cfa_offset 32
 2080 001a 0D46     		mov	r5, r1
 870:Middlewares/Third_Party/FreeRTOS/Source/stream_buffer.c **** 
 2081              		.loc 1 870 0
 2082 001c 40B9     		cbnz	r0, .L156
 2083              	.LBB167:
 2084              	.LBB168:
 195:Middlewares/Third_Party/FreeRTOS/Source/portable/GCC/ARM_CM4F/portmacro.h **** 	(
 2085              		.loc 2 195 0
 2086              		.syntax unified
 2087              	@ 195 "Middlewares/Third_Party/FreeRTOS/Source/portable/GCC/ARM_CM4F/portmacro.h" 1
 2088 001e 4FF05003 			mov r3, #80												
 2089 0022 83F31188 		msr basepri, r3											
 2090 0026 BFF36F8F 		isb														
 2091 002a BFF34F8F 		dsb														
 2092              	
 2093              	@ 0 "" 2
 2094              	.LVL245:
 2095              		.thumb
 2096              		.syntax unified
 2097              	.L157:
 2098 002e FEE7     		b	.L157
 2099              	.LVL246:
 2100              	.L156:
 2101              	.LBE168:
 2102              	.LBE167:
 877:Middlewares/Third_Party/FreeRTOS/Source/stream_buffer.c **** 	{
 2103              		.loc 1 877 0
 2104 0030 017F     		ldrb	r1, [r0, #28]	@ zero_extendqisi2
 2105              	.LVL247:
 2106 0032 11F0010F 		tst	r1, #1
 2107 0036 01D0     		beq	.L161
 879:Middlewares/Third_Party/FreeRTOS/Source/stream_buffer.c **** 	}
ARM GAS  /tmp/ccKrWf9C.s 			page 67


 2108              		.loc 1 879 0
 2109 0038 0427     		movs	r7, #4
 2110 003a 00E0     		b	.L158
 2111              	.L161:
 883:Middlewares/Third_Party/FreeRTOS/Source/stream_buffer.c **** 	}
 2112              		.loc 1 883 0
 2113 003c 0027     		movs	r7, #0
 2114              	.L158:
 2115 003e 9846     		mov	r8, r3
 2116 0040 1646     		mov	r6, r2
 2117 0042 0446     		mov	r4, r0
 2118              	.LVL248:
 886:Middlewares/Third_Party/FreeRTOS/Source/stream_buffer.c **** 
 2119              		.loc 1 886 0
 2120 0044 FFF7FEFF 		bl	prvBytesInBuffer
 2121              	.LVL249:
 2122 0048 0346     		mov	r3, r0
 2123              	.LVL250:
 893:Middlewares/Third_Party/FreeRTOS/Source/stream_buffer.c **** 	{
 2124              		.loc 1 893 0
 2125 004a 8742     		cmp	r7, r0
 2126 004c 20D2     		bcs	.L162
 895:Middlewares/Third_Party/FreeRTOS/Source/stream_buffer.c **** 
 2127              		.loc 1 895 0
 2128 004e 0097     		str	r7, [sp]
 2129 0050 3246     		mov	r2, r6
 2130 0052 2946     		mov	r1, r5
 2131 0054 2046     		mov	r0, r4
 2132              	.LVL251:
 2133 0056 FFF7FEFF 		bl	prvReadMessageFromBuffer
 2134              	.LVL252:
 898:Middlewares/Third_Party/FreeRTOS/Source/stream_buffer.c **** 		{
 2135              		.loc 1 898 0
 2136 005a 0546     		mov	r5, r0
 2137              	.LVL253:
 2138 005c C8B1     		cbz	r0, .L159
 2139              	.LBB169:
 2140              	.LBB170:
 2141              	.LBB171:
 211:Middlewares/Third_Party/FreeRTOS/Source/portable/GCC/ARM_CM4F/portmacro.h **** 	(
 2142              		.loc 2 211 0
 2143              		.syntax unified
 2144              	@ 211 "Middlewares/Third_Party/FreeRTOS/Source/portable/GCC/ARM_CM4F/portmacro.h" 1
 2145 005e EFF31186 			mrs r6, basepri											
 2146 0062 4FF05003 		mov r3, #80												
 2147 0066 83F31188 		msr basepri, r3											
 2148 006a BFF36F8F 		isb														
 2149 006e BFF34F8F 		dsb														
 2150              	
 2151              	@ 0 "" 2
 2152              	.LVL254:
 2153              		.thumb
 2154              		.syntax unified
 2155              	.LBE171:
 2156              	.LBE170:
 900:Middlewares/Third_Party/FreeRTOS/Source/stream_buffer.c **** 		}
 2157              		.loc 1 900 0
ARM GAS  /tmp/ccKrWf9C.s 			page 68


 2158 0072 6369     		ldr	r3, [r4, #20]
 2159 0074 4BB1     		cbz	r3, .L160
 900:Middlewares/Third_Party/FreeRTOS/Source/stream_buffer.c **** 		}
 2160              		.loc 1 900 0 is_stmt 0 discriminator 1
 2161 0076 6069     		ldr	r0, [r4, #20]
 2162              	.LVL255:
 2163 0078 CDF80080 		str	r8, [sp]
 2164 007c 0023     		movs	r3, #0
 2165 007e 1A46     		mov	r2, r3
 2166 0080 1946     		mov	r1, r3
 2167 0082 FFF7FEFF 		bl	xTaskGenericNotifyFromISR
 2168              	.LVL256:
 2169 0086 0023     		movs	r3, #0
 2170 0088 6361     		str	r3, [r4, #20]
 2171              	.L160:
 2172              	.LVL257:
 2173              	.LBB172:
 2174              	.LBB173:
 2175              		.loc 2 229 0 is_stmt 1 discriminator 3
 2176              		.syntax unified
 2177              	@ 229 "Middlewares/Third_Party/FreeRTOS/Source/portable/GCC/ARM_CM4F/portmacro.h" 1
 2178 008a 86F31188 			msr basepri, r6	
 2179              	@ 0 "" 2
 2180              		.thumb
 2181              		.syntax unified
 2182 008e 00E0     		b	.L159
 2183              	.LVL258:
 2184              	.L162:
 2185              	.LBE173:
 2186              	.LBE172:
 2187              	.LBE169:
 867:Middlewares/Third_Party/FreeRTOS/Source/stream_buffer.c **** 
 2188              		.loc 1 867 0
 2189 0090 0025     		movs	r5, #0
 2190              	.LVL259:
 2191              	.L159:
 915:Middlewares/Third_Party/FreeRTOS/Source/stream_buffer.c **** /*-----------------------------------------------------------*/
 2192              		.loc 1 915 0
 2193 0092 2846     		mov	r0, r5
 2194 0094 02B0     		add	sp, sp, #8
 2195              	.LCFI34:
 2196              		.cfi_def_cfa_offset 24
 2197              		@ sp needed
 2198 0096 BDE8F081 		pop	{r4, r5, r6, r7, r8, pc}
 2199              		.cfi_endproc
 2200              	.LFE16:
 2202 009a 00BF     		.section	.text.xStreamBufferIsEmpty,"ax",%progbits
 2203              		.align	2
 2204              		.global	xStreamBufferIsEmpty
 2205              		.thumb
 2206              		.thumb_func
 2208              	xStreamBufferIsEmpty:
 2209              	.LFB18:
 971:Middlewares/Third_Party/FreeRTOS/Source/stream_buffer.c **** const StreamBuffer_t * const pxStreamBuffer = xStreamBuffer;
 2210              		.loc 1 971 0
 2211              		.cfi_startproc
 2212              		@ args = 0, pretend = 0, frame = 0
ARM GAS  /tmp/ccKrWf9C.s 			page 69


 2213              		@ frame_needed = 0, uses_anonymous_args = 0
 2214              		@ link register save eliminated.
 2215              	.LVL260:
 976:Middlewares/Third_Party/FreeRTOS/Source/stream_buffer.c **** 
 2216              		.loc 1 976 0
 2217 0000 40B9     		cbnz	r0, .L165
 2218              	.LBB174:
 2219              	.LBB175:
 195:Middlewares/Third_Party/FreeRTOS/Source/portable/GCC/ARM_CM4F/portmacro.h **** 	(
 2220              		.loc 2 195 0
 2221              		.syntax unified
 2222              	@ 195 "Middlewares/Third_Party/FreeRTOS/Source/portable/GCC/ARM_CM4F/portmacro.h" 1
 2223 0002 4FF05003 			mov r3, #80												
 2224 0006 83F31188 		msr basepri, r3											
 2225 000a BFF36F8F 		isb														
 2226 000e BFF34F8F 		dsb														
 2227              	
 2228              	@ 0 "" 2
 2229              	.LVL261:
 2230              		.thumb
 2231              		.syntax unified
 2232              	.L166:
 2233 0012 FEE7     		b	.L166
 2234              	.L165:
 2235              	.LBE175:
 2236              	.LBE174:
 979:Middlewares/Third_Party/FreeRTOS/Source/stream_buffer.c **** 	if( pxStreamBuffer->xHead == xTail )
 2237              		.loc 1 979 0
 2238 0014 0268     		ldr	r2, [r0]
 2239              	.LVL262:
 980:Middlewares/Third_Party/FreeRTOS/Source/stream_buffer.c **** 	{
 2240              		.loc 1 980 0
 2241 0016 4368     		ldr	r3, [r0, #4]
 2242 0018 9A42     		cmp	r2, r3
 2243 001a 01D1     		bne	.L168
 982:Middlewares/Third_Party/FreeRTOS/Source/stream_buffer.c **** 	}
 2244              		.loc 1 982 0
 2245 001c 0120     		movs	r0, #1
 2246              	.LVL263:
 2247 001e 7047     		bx	lr
 2248              	.LVL264:
 2249              	.L168:
 986:Middlewares/Third_Party/FreeRTOS/Source/stream_buffer.c **** 	}
 2250              		.loc 1 986 0
 2251 0020 0020     		movs	r0, #0
 2252              	.LVL265:
 990:Middlewares/Third_Party/FreeRTOS/Source/stream_buffer.c **** /*-----------------------------------------------------------*/
 2253              		.loc 1 990 0
 2254 0022 7047     		bx	lr
 2255              		.cfi_endproc
 2256              	.LFE18:
 2258              		.section	.text.xStreamBufferIsFull,"ax",%progbits
 2259              		.align	2
 2260              		.global	xStreamBufferIsFull
 2261              		.thumb
 2262              		.thumb_func
 2264              	xStreamBufferIsFull:
ARM GAS  /tmp/ccKrWf9C.s 			page 70


 2265              	.LFB19:
 994:Middlewares/Third_Party/FreeRTOS/Source/stream_buffer.c **** BaseType_t xReturn;
 2266              		.loc 1 994 0
 2267              		.cfi_startproc
 2268              		@ args = 0, pretend = 0, frame = 0
 2269              		@ frame_needed = 0, uses_anonymous_args = 0
 2270              	.LVL266:
 999:Middlewares/Third_Party/FreeRTOS/Source/stream_buffer.c **** 
 2271              		.loc 1 999 0
 2272 0000 40B9     		cbnz	r0, .L170
 2273              	.LBB176:
 2274              	.LBB177:
 195:Middlewares/Third_Party/FreeRTOS/Source/portable/GCC/ARM_CM4F/portmacro.h **** 	(
 2275              		.loc 2 195 0
 2276              		.syntax unified
 2277              	@ 195 "Middlewares/Third_Party/FreeRTOS/Source/portable/GCC/ARM_CM4F/portmacro.h" 1
 2278 0002 4FF05003 			mov r3, #80												
 2279 0006 83F31188 		msr basepri, r3											
 2280 000a BFF36F8F 		isb														
 2281 000e BFF34F8F 		dsb														
 2282              	
 2283              	@ 0 "" 2
 2284              	.LVL267:
 2285              		.thumb
 2286              		.syntax unified
 2287              	.L171:
 2288 0012 FEE7     		b	.L171
 2289              	.L170:
 2290              	.LBE177:
 2291              	.LBE176:
 994:Middlewares/Third_Party/FreeRTOS/Source/stream_buffer.c **** BaseType_t xReturn;
 2292              		.loc 1 994 0
 2293 0014 10B5     		push	{r4, lr}
 2294              	.LCFI35:
 2295              		.cfi_def_cfa_offset 8
 2296              		.cfi_offset 4, -8
 2297              		.cfi_offset 14, -4
 2298 0016 0346     		mov	r3, r0
1005:Middlewares/Third_Party/FreeRTOS/Source/stream_buffer.c **** 	{
 2299              		.loc 1 1005 0
 2300 0018 027F     		ldrb	r2, [r0, #28]	@ zero_extendqisi2
 2301 001a 12F0010F 		tst	r2, #1
 2302 001e 01D0     		beq	.L174
1007:Middlewares/Third_Party/FreeRTOS/Source/stream_buffer.c **** 	}
 2303              		.loc 1 1007 0
 2304 0020 0424     		movs	r4, #4
 2305 0022 00E0     		b	.L172
 2306              	.L174:
1011:Middlewares/Third_Party/FreeRTOS/Source/stream_buffer.c **** 	}
 2307              		.loc 1 1011 0
 2308 0024 0024     		movs	r4, #0
 2309              	.L172:
 2310 0026 1846     		mov	r0, r3
 2311              	.LVL268:
1015:Middlewares/Third_Party/FreeRTOS/Source/stream_buffer.c **** 	{
 2312              		.loc 1 1015 0
 2313 0028 FFF7FEFF 		bl	xStreamBufferSpacesAvailable
ARM GAS  /tmp/ccKrWf9C.s 			page 71


 2314              	.LVL269:
 2315 002c 8442     		cmp	r4, r0
 2316 002e 01D3     		bcc	.L175
1017:Middlewares/Third_Party/FreeRTOS/Source/stream_buffer.c **** 	}
 2317              		.loc 1 1017 0
 2318 0030 0120     		movs	r0, #1
 2319 0032 10BD     		pop	{r4, pc}
 2320              	.LVL270:
 2321              	.L175:
1021:Middlewares/Third_Party/FreeRTOS/Source/stream_buffer.c **** 	}
 2322              		.loc 1 1021 0
 2323 0034 0020     		movs	r0, #0
 2324              	.LVL271:
1025:Middlewares/Third_Party/FreeRTOS/Source/stream_buffer.c **** /*-----------------------------------------------------------*/
 2325              		.loc 1 1025 0
 2326 0036 10BD     		pop	{r4, pc}
 2327              		.cfi_endproc
 2328              	.LFE19:
 2330              		.section	.text.xStreamBufferSendCompletedFromISR,"ax",%progbits
 2331              		.align	2
 2332              		.global	xStreamBufferSendCompletedFromISR
 2333              		.thumb
 2334              		.thumb_func
 2336              	xStreamBufferSendCompletedFromISR:
 2337              	.LFB20:
1029:Middlewares/Third_Party/FreeRTOS/Source/stream_buffer.c **** StreamBuffer_t * const pxStreamBuffer = xStreamBuffer;
 2338              		.loc 1 1029 0
 2339              		.cfi_startproc
 2340              		@ args = 0, pretend = 0, frame = 0
 2341              		@ frame_needed = 0, uses_anonymous_args = 0
 2342              	.LVL272:
1034:Middlewares/Third_Party/FreeRTOS/Source/stream_buffer.c **** 
 2343              		.loc 1 1034 0
 2344 0000 40B9     		cbnz	r0, .L178
 2345              	.LBB178:
 2346              	.LBB179:
 195:Middlewares/Third_Party/FreeRTOS/Source/portable/GCC/ARM_CM4F/portmacro.h **** 	(
 2347              		.loc 2 195 0
 2348              		.syntax unified
 2349              	@ 195 "Middlewares/Third_Party/FreeRTOS/Source/portable/GCC/ARM_CM4F/portmacro.h" 1
 2350 0002 4FF05003 			mov r3, #80												
 2351 0006 83F31188 		msr basepri, r3											
 2352 000a BFF36F8F 		isb														
 2353 000e BFF34F8F 		dsb														
 2354              	
 2355              	@ 0 "" 2
 2356              	.LVL273:
 2357              		.thumb
 2358              		.syntax unified
 2359              	.L179:
 2360 0012 FEE7     		b	.L179
 2361              	.L178:
 2362              	.LBE179:
 2363              	.LBE178:
1029:Middlewares/Third_Party/FreeRTOS/Source/stream_buffer.c **** StreamBuffer_t * const pxStreamBuffer = xStreamBuffer;
 2364              		.loc 1 1029 0
 2365 0014 30B5     		push	{r4, r5, lr}
ARM GAS  /tmp/ccKrWf9C.s 			page 72


 2366              	.LCFI36:
 2367              		.cfi_def_cfa_offset 12
 2368              		.cfi_offset 4, -12
 2369              		.cfi_offset 5, -8
 2370              		.cfi_offset 14, -4
 2371 0016 83B0     		sub	sp, sp, #12
 2372              	.LCFI37:
 2373              		.cfi_def_cfa_offset 24
 2374 0018 0446     		mov	r4, r0
 2375              	.LBB180:
 2376              	.LBB181:
 211:Middlewares/Third_Party/FreeRTOS/Source/portable/GCC/ARM_CM4F/portmacro.h **** 	(
 2377              		.loc 2 211 0
 2378              		.syntax unified
 2379              	@ 211 "Middlewares/Third_Party/FreeRTOS/Source/portable/GCC/ARM_CM4F/portmacro.h" 1
 2380 001a EFF31185 			mrs r5, basepri											
 2381 001e 4FF05003 		mov r3, #80												
 2382 0022 83F31188 		msr basepri, r3											
 2383 0026 BFF36F8F 		isb														
 2384 002a BFF34F8F 		dsb														
 2385              	
 2386              	@ 0 "" 2
 2387              		.thumb
 2388              		.syntax unified
 2389              	.LBE181:
 2390              	.LBE180:
1038:Middlewares/Third_Party/FreeRTOS/Source/stream_buffer.c **** 		{
 2391              		.loc 1 1038 0
 2392 002e 0369     		ldr	r3, [r0, #16]
 2393 0030 53B1     		cbz	r3, .L181
1040:Middlewares/Third_Party/FreeRTOS/Source/stream_buffer.c **** 										 ( uint32_t ) 0,
 2394              		.loc 1 1040 0
 2395 0032 0069     		ldr	r0, [r0, #16]
 2396              	.LVL274:
 2397 0034 0091     		str	r1, [sp]
 2398 0036 0023     		movs	r3, #0
 2399 0038 1A46     		mov	r2, r3
 2400 003a 1946     		mov	r1, r3
 2401              	.LVL275:
 2402 003c FFF7FEFF 		bl	xTaskGenericNotifyFromISR
 2403              	.LVL276:
1044:Middlewares/Third_Party/FreeRTOS/Source/stream_buffer.c **** 			xReturn = pdTRUE;
 2404              		.loc 1 1044 0
 2405 0040 0023     		movs	r3, #0
 2406 0042 2361     		str	r3, [r4, #16]
 2407              	.LVL277:
1045:Middlewares/Third_Party/FreeRTOS/Source/stream_buffer.c **** 		}
 2408              		.loc 1 1045 0
 2409 0044 0120     		movs	r0, #1
 2410 0046 00E0     		b	.L180
 2411              	.LVL278:
 2412              	.L181:
1049:Middlewares/Third_Party/FreeRTOS/Source/stream_buffer.c **** 		}
 2413              		.loc 1 1049 0
 2414 0048 0020     		movs	r0, #0
 2415              	.LVL279:
 2416              	.L180:
ARM GAS  /tmp/ccKrWf9C.s 			page 73


 2417              	.LBB182:
 2418              	.LBB183:
 2419              		.loc 2 229 0
 2420              		.syntax unified
 2421              	@ 229 "Middlewares/Third_Party/FreeRTOS/Source/portable/GCC/ARM_CM4F/portmacro.h" 1
 2422 004a 85F31188 			msr basepri, r5	
 2423              	@ 0 "" 2
 2424              	.LVL280:
 2425              		.thumb
 2426              		.syntax unified
 2427              	.LBE183:
 2428              	.LBE182:
1055:Middlewares/Third_Party/FreeRTOS/Source/stream_buffer.c **** /*-----------------------------------------------------------*/
 2429              		.loc 1 1055 0
 2430 004e 03B0     		add	sp, sp, #12
 2431              	.LCFI38:
 2432              		.cfi_def_cfa_offset 12
 2433              		@ sp needed
 2434 0050 30BD     		pop	{r4, r5, pc}
 2435              		.cfi_endproc
 2436              	.LFE20:
 2438 0052 00BF     		.section	.text.xStreamBufferReceiveCompletedFromISR,"ax",%progbits
 2439              		.align	2
 2440              		.global	xStreamBufferReceiveCompletedFromISR
 2441              		.thumb
 2442              		.thumb_func
 2444              	xStreamBufferReceiveCompletedFromISR:
 2445              	.LFB21:
1059:Middlewares/Third_Party/FreeRTOS/Source/stream_buffer.c **** StreamBuffer_t * const pxStreamBuffer = xStreamBuffer;
 2446              		.loc 1 1059 0
 2447              		.cfi_startproc
 2448              		@ args = 0, pretend = 0, frame = 0
 2449              		@ frame_needed = 0, uses_anonymous_args = 0
 2450              	.LVL281:
1064:Middlewares/Third_Party/FreeRTOS/Source/stream_buffer.c **** 
 2451              		.loc 1 1064 0
 2452 0000 40B9     		cbnz	r0, .L184
 2453              	.LBB184:
 2454              	.LBB185:
 195:Middlewares/Third_Party/FreeRTOS/Source/portable/GCC/ARM_CM4F/portmacro.h **** 	(
 2455              		.loc 2 195 0
 2456              		.syntax unified
 2457              	@ 195 "Middlewares/Third_Party/FreeRTOS/Source/portable/GCC/ARM_CM4F/portmacro.h" 1
 2458 0002 4FF05003 			mov r3, #80												
 2459 0006 83F31188 		msr basepri, r3											
 2460 000a BFF36F8F 		isb														
 2461 000e BFF34F8F 		dsb														
 2462              	
 2463              	@ 0 "" 2
 2464              	.LVL282:
 2465              		.thumb
 2466              		.syntax unified
 2467              	.L185:
 2468 0012 FEE7     		b	.L185
 2469              	.L184:
 2470              	.LBE185:
 2471              	.LBE184:
ARM GAS  /tmp/ccKrWf9C.s 			page 74


1059:Middlewares/Third_Party/FreeRTOS/Source/stream_buffer.c **** StreamBuffer_t * const pxStreamBuffer = xStreamBuffer;
 2472              		.loc 1 1059 0
 2473 0014 30B5     		push	{r4, r5, lr}
 2474              	.LCFI39:
 2475              		.cfi_def_cfa_offset 12
 2476              		.cfi_offset 4, -12
 2477              		.cfi_offset 5, -8
 2478              		.cfi_offset 14, -4
 2479 0016 83B0     		sub	sp, sp, #12
 2480              	.LCFI40:
 2481              		.cfi_def_cfa_offset 24
 2482 0018 0446     		mov	r4, r0
 2483              	.LBB186:
 2484              	.LBB187:
 211:Middlewares/Third_Party/FreeRTOS/Source/portable/GCC/ARM_CM4F/portmacro.h **** 	(
 2485              		.loc 2 211 0
 2486              		.syntax unified
 2487              	@ 211 "Middlewares/Third_Party/FreeRTOS/Source/portable/GCC/ARM_CM4F/portmacro.h" 1
 2488 001a EFF31185 			mrs r5, basepri											
 2489 001e 4FF05003 		mov r3, #80												
 2490 0022 83F31188 		msr basepri, r3											
 2491 0026 BFF36F8F 		isb														
 2492 002a BFF34F8F 		dsb														
 2493              	
 2494              	@ 0 "" 2
 2495              		.thumb
 2496              		.syntax unified
 2497              	.LBE187:
 2498              	.LBE186:
1068:Middlewares/Third_Party/FreeRTOS/Source/stream_buffer.c **** 		{
 2499              		.loc 1 1068 0
 2500 002e 4369     		ldr	r3, [r0, #20]
 2501 0030 53B1     		cbz	r3, .L187
1070:Middlewares/Third_Party/FreeRTOS/Source/stream_buffer.c **** 										 ( uint32_t ) 0,
 2502              		.loc 1 1070 0
 2503 0032 4069     		ldr	r0, [r0, #20]
 2504              	.LVL283:
 2505 0034 0091     		str	r1, [sp]
 2506 0036 0023     		movs	r3, #0
 2507 0038 1A46     		mov	r2, r3
 2508 003a 1946     		mov	r1, r3
 2509              	.LVL284:
 2510 003c FFF7FEFF 		bl	xTaskGenericNotifyFromISR
 2511              	.LVL285:
1074:Middlewares/Third_Party/FreeRTOS/Source/stream_buffer.c **** 			xReturn = pdTRUE;
 2512              		.loc 1 1074 0
 2513 0040 0023     		movs	r3, #0
 2514 0042 6361     		str	r3, [r4, #20]
 2515              	.LVL286:
1075:Middlewares/Third_Party/FreeRTOS/Source/stream_buffer.c **** 		}
 2516              		.loc 1 1075 0
 2517 0044 0120     		movs	r0, #1
 2518 0046 00E0     		b	.L186
 2519              	.LVL287:
 2520              	.L187:
1079:Middlewares/Third_Party/FreeRTOS/Source/stream_buffer.c **** 		}
 2521              		.loc 1 1079 0
ARM GAS  /tmp/ccKrWf9C.s 			page 75


 2522 0048 0020     		movs	r0, #0
 2523              	.LVL288:
 2524              	.L186:
 2525              	.LBB188:
 2526              	.LBB189:
 2527              		.loc 2 229 0
 2528              		.syntax unified
 2529              	@ 229 "Middlewares/Third_Party/FreeRTOS/Source/portable/GCC/ARM_CM4F/portmacro.h" 1
 2530 004a 85F31188 			msr basepri, r5	
 2531              	@ 0 "" 2
 2532              	.LVL289:
 2533              		.thumb
 2534              		.syntax unified
 2535              	.LBE189:
 2536              	.LBE188:
1085:Middlewares/Third_Party/FreeRTOS/Source/stream_buffer.c **** /*-----------------------------------------------------------*/
 2537              		.loc 1 1085 0
 2538 004e 03B0     		add	sp, sp, #12
 2539              	.LCFI41:
 2540              		.cfi_def_cfa_offset 12
 2541              		@ sp needed
 2542 0050 30BD     		pop	{r4, r5, pc}
 2543              		.cfi_endproc
 2544              	.LFE21:
 2546 0052 00BF     		.section	.text.uxStreamBufferGetStreamBufferNumber,"ax",%progbits
 2547              		.align	2
 2548              		.global	uxStreamBufferGetStreamBufferNumber
 2549              		.thumb
 2550              		.thumb_func
 2552              	uxStreamBufferGetStreamBufferNumber:
 2553              	.LFB26:
1233:Middlewares/Third_Party/FreeRTOS/Source/stream_buffer.c **** }
1234:Middlewares/Third_Party/FreeRTOS/Source/stream_buffer.c **** 
1235:Middlewares/Third_Party/FreeRTOS/Source/stream_buffer.c **** #if ( configUSE_TRACE_FACILITY == 1 )
1236:Middlewares/Third_Party/FreeRTOS/Source/stream_buffer.c **** 
1237:Middlewares/Third_Party/FreeRTOS/Source/stream_buffer.c **** 	UBaseType_t uxStreamBufferGetStreamBufferNumber( StreamBufferHandle_t xStreamBuffer )
1238:Middlewares/Third_Party/FreeRTOS/Source/stream_buffer.c **** 	{
 2554              		.loc 1 1238 0
 2555              		.cfi_startproc
 2556              		@ args = 0, pretend = 0, frame = 0
 2557              		@ frame_needed = 0, uses_anonymous_args = 0
 2558              		@ link register save eliminated.
 2559              	.LVL290:
1239:Middlewares/Third_Party/FreeRTOS/Source/stream_buffer.c **** 		return xStreamBuffer->uxStreamBufferNumber;
1240:Middlewares/Third_Party/FreeRTOS/Source/stream_buffer.c **** 	}
 2560              		.loc 1 1240 0
 2561 0000 006A     		ldr	r0, [r0, #32]
 2562              	.LVL291:
 2563 0002 7047     		bx	lr
 2564              		.cfi_endproc
 2565              	.LFE26:
 2567              		.section	.text.vStreamBufferSetStreamBufferNumber,"ax",%progbits
 2568              		.align	2
 2569              		.global	vStreamBufferSetStreamBufferNumber
 2570              		.thumb
 2571              		.thumb_func
 2573              	vStreamBufferSetStreamBufferNumber:
ARM GAS  /tmp/ccKrWf9C.s 			page 76


 2574              	.LFB27:
1241:Middlewares/Third_Party/FreeRTOS/Source/stream_buffer.c **** 
1242:Middlewares/Third_Party/FreeRTOS/Source/stream_buffer.c **** #endif /* configUSE_TRACE_FACILITY */
1243:Middlewares/Third_Party/FreeRTOS/Source/stream_buffer.c **** /*-----------------------------------------------------------*/
1244:Middlewares/Third_Party/FreeRTOS/Source/stream_buffer.c **** 
1245:Middlewares/Third_Party/FreeRTOS/Source/stream_buffer.c **** #if ( configUSE_TRACE_FACILITY == 1 )
1246:Middlewares/Third_Party/FreeRTOS/Source/stream_buffer.c **** 
1247:Middlewares/Third_Party/FreeRTOS/Source/stream_buffer.c **** 	void vStreamBufferSetStreamBufferNumber( StreamBufferHandle_t xStreamBuffer, UBaseType_t uxStreamB
1248:Middlewares/Third_Party/FreeRTOS/Source/stream_buffer.c **** 	{
 2575              		.loc 1 1248 0
 2576              		.cfi_startproc
 2577              		@ args = 0, pretend = 0, frame = 0
 2578              		@ frame_needed = 0, uses_anonymous_args = 0
 2579              		@ link register save eliminated.
 2580              	.LVL292:
1249:Middlewares/Third_Party/FreeRTOS/Source/stream_buffer.c **** 		xStreamBuffer->uxStreamBufferNumber = uxStreamBufferNumber;
 2581              		.loc 1 1249 0
 2582 0000 0162     		str	r1, [r0, #32]
 2583 0002 7047     		bx	lr
 2584              		.cfi_endproc
 2585              	.LFE27:
 2587              		.section	.text.ucStreamBufferGetStreamBufferType,"ax",%progbits
 2588              		.align	2
 2589              		.global	ucStreamBufferGetStreamBufferType
 2590              		.thumb
 2591              		.thumb_func
 2593              	ucStreamBufferGetStreamBufferType:
 2594              	.LFB28:
1250:Middlewares/Third_Party/FreeRTOS/Source/stream_buffer.c **** 	}
1251:Middlewares/Third_Party/FreeRTOS/Source/stream_buffer.c **** 
1252:Middlewares/Third_Party/FreeRTOS/Source/stream_buffer.c **** #endif /* configUSE_TRACE_FACILITY */
1253:Middlewares/Third_Party/FreeRTOS/Source/stream_buffer.c **** /*-----------------------------------------------------------*/
1254:Middlewares/Third_Party/FreeRTOS/Source/stream_buffer.c **** 
1255:Middlewares/Third_Party/FreeRTOS/Source/stream_buffer.c **** #if ( configUSE_TRACE_FACILITY == 1 )
1256:Middlewares/Third_Party/FreeRTOS/Source/stream_buffer.c **** 
1257:Middlewares/Third_Party/FreeRTOS/Source/stream_buffer.c **** 	uint8_t ucStreamBufferGetStreamBufferType( StreamBufferHandle_t xStreamBuffer )
1258:Middlewares/Third_Party/FreeRTOS/Source/stream_buffer.c **** 	{
 2595              		.loc 1 1258 0
 2596              		.cfi_startproc
 2597              		@ args = 0, pretend = 0, frame = 0
 2598              		@ frame_needed = 0, uses_anonymous_args = 0
 2599              		@ link register save eliminated.
 2600              	.LVL293:
1259:Middlewares/Third_Party/FreeRTOS/Source/stream_buffer.c **** 		return ( xStreamBuffer->ucFlags & sbFLAGS_IS_MESSAGE_BUFFER );
 2601              		.loc 1 1259 0
 2602 0000 007F     		ldrb	r0, [r0, #28]	@ zero_extendqisi2
 2603              	.LVL294:
1260:Middlewares/Third_Party/FreeRTOS/Source/stream_buffer.c **** 	}
 2604              		.loc 1 1260 0
 2605 0002 00F00100 		and	r0, r0, #1
 2606 0006 7047     		bx	lr
 2607              		.cfi_endproc
 2608              	.LFE28:
 2610              		.text
 2611              	.Letext0:
 2612              		.file 3 "/home/deh/launchpad/gcc-arm-none-eabi-5_4-2016q3/arm-none-eabi/include/machine/_default_t
 2613              		.file 4 "/home/deh/launchpad/gcc-arm-none-eabi-5_4-2016q3/arm-none-eabi/include/sys/_stdint.h"
ARM GAS  /tmp/ccKrWf9C.s 			page 77


 2614              		.file 5 "/home/deh/launchpad/gcc-arm-none-eabi-5_4-2016q3/lib/gcc/arm-none-eabi/5.4.1/include/stdd
 2615              		.file 6 "Middlewares/Third_Party/FreeRTOS/Source/include/FreeRTOS.h"
 2616              		.file 7 "Middlewares/Third_Party/FreeRTOS/Source/include/task.h"
 2617              		.file 8 "Middlewares/Third_Party/FreeRTOS/Source/include/stream_buffer.h"
 2618              		.file 9 "/home/deh/launchpad/gcc-arm-none-eabi-5_4-2016q3/arm-none-eabi/include/string.h"
 2619              		.file 10 "Middlewares/Third_Party/FreeRTOS/Source/include/portable.h"
ARM GAS  /tmp/ccKrWf9C.s 			page 78


DEFINED SYMBOLS
                            *ABS*:00000000 stream_buffer.c
     /tmp/ccKrWf9C.s:22     .text.prvBytesInBuffer:00000000 $t
     /tmp/ccKrWf9C.s:26     .text.prvBytesInBuffer:00000000 prvBytesInBuffer
     /tmp/ccKrWf9C.s:58     .text.prvInitialiseNewStreamBuffer:00000000 $t
     /tmp/ccKrWf9C.s:62     .text.prvInitialiseNewStreamBuffer:00000000 prvInitialiseNewStreamBuffer
     /tmp/ccKrWf9C.s:134    .text.prvWriteBytesToBuffer:00000000 $t
     /tmp/ccKrWf9C.s:138    .text.prvWriteBytesToBuffer:00000000 prvWriteBytesToBuffer
     /tmp/ccKrWf9C.s:273    .text.prvWriteMessageToBuffer:00000000 $t
     /tmp/ccKrWf9C.s:277    .text.prvWriteMessageToBuffer:00000000 prvWriteMessageToBuffer
     /tmp/ccKrWf9C.s:372    .text.prvReadBytesFromBuffer:00000000 $t
     /tmp/ccKrWf9C.s:376    .text.prvReadBytesFromBuffer:00000000 prvReadBytesFromBuffer
     /tmp/ccKrWf9C.s:526    .text.prvReadMessageFromBuffer:00000000 $t
     /tmp/ccKrWf9C.s:530    .text.prvReadMessageFromBuffer:00000000 prvReadMessageFromBuffer
     /tmp/ccKrWf9C.s:606    .text.xStreamBufferGenericCreate:00000000 $t
     /tmp/ccKrWf9C.s:611    .text.xStreamBufferGenericCreate:00000000 xStreamBufferGenericCreate
     /tmp/ccKrWf9C.s:745    .text.xStreamBufferGenericCreateStatic:00000000 $t
     /tmp/ccKrWf9C.s:750    .text.xStreamBufferGenericCreateStatic:00000000 xStreamBufferGenericCreateStatic
     /tmp/ccKrWf9C.s:951    .text.vStreamBufferDelete:00000000 $t
     /tmp/ccKrWf9C.s:956    .text.vStreamBufferDelete:00000000 vStreamBufferDelete
     /tmp/ccKrWf9C.s:1010   .text.xStreamBufferReset:00000000 $t
     /tmp/ccKrWf9C.s:1015   .text.xStreamBufferReset:00000000 xStreamBufferReset
     /tmp/ccKrWf9C.s:1106   .text.xStreamBufferSetTriggerLevel:00000000 $t
     /tmp/ccKrWf9C.s:1111   .text.xStreamBufferSetTriggerLevel:00000000 xStreamBufferSetTriggerLevel
     /tmp/ccKrWf9C.s:1169   .text.xStreamBufferSpacesAvailable:00000000 $t
     /tmp/ccKrWf9C.s:1174   .text.xStreamBufferSpacesAvailable:00000000 xStreamBufferSpacesAvailable
     /tmp/ccKrWf9C.s:1229   .text.xStreamBufferBytesAvailable:00000000 $t
     /tmp/ccKrWf9C.s:1234   .text.xStreamBufferBytesAvailable:00000000 xStreamBufferBytesAvailable
     /tmp/ccKrWf9C.s:1277   .text.xStreamBufferSend:00000000 $t
     /tmp/ccKrWf9C.s:1282   .text.xStreamBufferSend:00000000 xStreamBufferSend
     /tmp/ccKrWf9C.s:1532   .text.xStreamBufferSendFromISR:00000000 $t
     /tmp/ccKrWf9C.s:1537   .text.xStreamBufferSendFromISR:00000000 xStreamBufferSendFromISR
     /tmp/ccKrWf9C.s:1702   .text.xStreamBufferReceive:00000000 $t
     /tmp/ccKrWf9C.s:1707   .text.xStreamBufferReceive:00000000 xStreamBufferReceive
     /tmp/ccKrWf9C.s:1917   .text.xStreamBufferNextMessageLengthBytes:00000000 $t
     /tmp/ccKrWf9C.s:1922   .text.xStreamBufferNextMessageLengthBytes:00000000 xStreamBufferNextMessageLengthBytes
     /tmp/ccKrWf9C.s:2033   .text.xStreamBufferReceiveFromISR:00000000 $t
     /tmp/ccKrWf9C.s:2038   .text.xStreamBufferReceiveFromISR:00000000 xStreamBufferReceiveFromISR
     /tmp/ccKrWf9C.s:2203   .text.xStreamBufferIsEmpty:00000000 $t
     /tmp/ccKrWf9C.s:2208   .text.xStreamBufferIsEmpty:00000000 xStreamBufferIsEmpty
     /tmp/ccKrWf9C.s:2259   .text.xStreamBufferIsFull:00000000 $t
     /tmp/ccKrWf9C.s:2264   .text.xStreamBufferIsFull:00000000 xStreamBufferIsFull
     /tmp/ccKrWf9C.s:2331   .text.xStreamBufferSendCompletedFromISR:00000000 $t
     /tmp/ccKrWf9C.s:2336   .text.xStreamBufferSendCompletedFromISR:00000000 xStreamBufferSendCompletedFromISR
     /tmp/ccKrWf9C.s:2439   .text.xStreamBufferReceiveCompletedFromISR:00000000 $t
     /tmp/ccKrWf9C.s:2444   .text.xStreamBufferReceiveCompletedFromISR:00000000 xStreamBufferReceiveCompletedFromISR
     /tmp/ccKrWf9C.s:2547   .text.uxStreamBufferGetStreamBufferNumber:00000000 $t
     /tmp/ccKrWf9C.s:2552   .text.uxStreamBufferGetStreamBufferNumber:00000000 uxStreamBufferGetStreamBufferNumber
     /tmp/ccKrWf9C.s:2568   .text.vStreamBufferSetStreamBufferNumber:00000000 $t
     /tmp/ccKrWf9C.s:2573   .text.vStreamBufferSetStreamBufferNumber:00000000 vStreamBufferSetStreamBufferNumber
     /tmp/ccKrWf9C.s:2588   .text.ucStreamBufferGetStreamBufferType:00000000 $t
     /tmp/ccKrWf9C.s:2593   .text.ucStreamBufferGetStreamBufferType:00000000 ucStreamBufferGetStreamBufferType
                     .debug_frame:00000010 $d

UNDEFINED SYMBOLS
memset
memcpy
ARM GAS  /tmp/ccKrWf9C.s 			page 79


pvPortMalloc
vPortFree
vPortEnterCritical
vPortExitCritical
vTaskSetTimeOutState
xTaskNotifyStateClear
xTaskGetCurrentTaskHandle
xTaskNotifyWait
xTaskCheckForTimeOut
vTaskSuspendAll
xTaskGenericNotify
xTaskResumeAll
xTaskGenericNotifyFromISR
